(dp0
S'byUser'
p1
(dp2
VBZPwVUk-qO6wSRF7kjQe-wu
p3
I0
sVAOmdmYYSeLUstcN084_wMAu
p4
I1
sVwOwd0u_ony4ccUm3QrCIZQu
p5
I2
sVBsmLSUK_GNBSgAVtIySBpAu
p6
I1
sVi2QqqRhuc20r27y_fx59KQu
p7
I4
sVwjLVSNHQP7Y4b1VN_PyPgAu
p8
I6
sVydLUNjcGUl-nISKSrUUrGAu
p9
I8
sVeSbl3Q1HxQuZTmu5dqpn-gu
p10
I2
sVvDpNMIiwVIBmO8kbucC7oQu
p11
I7
sVf1-pIw_p0ifzu03TXjPRiwu
p12
I7
sV0-aWamipsRNfcgFYALX1KQu
p13
I10
sVwaD2euOMPTnTzQ0thq3H6Qu
p14
I11
sVvhAn390OgR1H4DwacJdc7wu
p15
I7
sVjOs47GO0b7iPsbYZe-lLSQu
p16
I4
sVJwRWL5jW9U5sI3wM0EUPMgu
p17
I12
sV3yJlrc2QIHpkyCRV-OsbGQu
p18
I13
sVXL9D0wXPLcmNox-d9XDfTgu
p19
I14
sVyIYQewxT56mvIDLuBm7k9Qu
p20
I15
sVlKAr9jH7rfpN8YuOOZyHDwu
p21
I16
sVxjsIKyqLOqM8DyEhYh1IoAu
p22
I1
sViNplaNMe_XisdyWcaT2Rvgu
p23
I17
sVueCHAfnKbMAonNVmqqvDFAu
p24
I18
sVDb5IKqE1M2iP5EnZNDroRQu
p25
I19
sVYz7i36gFLsuFSPSCqBBp8gu
p26
I16
sVF7jDusVJagWIFD-UTz7xggu
p27
I20
sVk5uJCP_y3PStpiwJ_LTPtQu
p28
I18
sVRrnD8JPT9pXN_pXdwVwW2Au
p29
I0
sVxaEtXJM62xy-jdGyevR7VQu
p30
I21
sV1BW2HC851fJKPfJeQxjkTAu
p31
I7
sVLB7HoDg61yWP2CjrueeJUQu
p32
I22
sVJvAcIjgwz7HGtE_vgdoXkgu
p33
I1
sVJTd_HLrtLDg7YSjLq_8I_Au
p34
I4
sVfFFT99b1av5nhkxRfrZb2Qu
p35
I19
sV18buMk5M3IMnfwazFPka8Au
p36
I18
sV6670GGYK2G11s-D5JQbgzgu
p37
I21
sV-bS10uBtPvXUz2-ysabTfAu
p38
I9
sV-JvniBY0gYLzuSRnpG4HPAu
p39
I24
sV7i14F52gOUBqlRudUCwPsAu
p40
I25
sVGZ8SFGydLYKfVQGBu2BvPAu
p41
I27
sVmEMZxvHpemSxn1gl7Lj1Zwu
p42
I4
sVZ-krZ3q22c-0q9luBZlJLQu
p43
I9
sV1jJktRMj1OfMDo-clbYvrgu
p44
I28
sVth2oEvukSKqKO7TSCCp-Ewu
p45
I22
sVWJhAKYIAKyrdFnTnjuM44Qu
p46
I29
sVcTqjCINamOfIpUoLEzcczQu
p47
I16
sVKVkXVIvm7OK334a1pBFIJQu
p48
I30
sVsLKOFR5xBHq81CFjSURrEgu
p49
I22
sV7QdByadgw3TqlgjrJvGTeQu
p50
I31
sVuP-k3VT4Ss8fubITUybf-gu
p51
I32
sVm2uaBX3VmZZSc3NyD1qyoQu
p52
I1
sVXYVfcuxJ4x805zIWvJ17MAu
p53
I1
sVoJTwHtNlipl1iqaFV7HHZAu
p54
I1
sVmge-pOpNNuO4IL2o-mXB-gu
p55
I33
sVCll774UsQMVariyjTks_RQu
p56
I34
sVyrXCDuHsWLt14ql-aLOCYgu
p57
I1
sVzMhkzu9VXFULKQ8YCCsDVQu
p58
I265
sVL3HT_5LwkK6xgChRLCNpXQu
p59
I19
sV4g0BSDfFUUPuDpJcdeqmAwu
p60
I1
sVSHTJPF9xvkB912zkmvUw9Au
p61
I35
sVLZrS2Uwzjo5E_qAm-P6TlQu
p62
I1
sV6vy2DcTQi_QTA48e8OWX9wu
p63
I0
sVBrJcbK_lH0irQcNSNBEQHQu
p64
I36
sVwE1NBJRLbkhFSWjfJbGEjQu
p65
I21
sVDgaUtYKEwoeuVU89kC4lcQu
p66
I19
sVsEWeeq41k4ohBz4jS_iGRwu
p67
I7
sVVovMsKbDF2Msflj1zPYF0Au
p68
I37
sVonL6S42j3dbsvilahfOycAu
p69
I4
sV6EfkWcAjGpGmD4T7HOd1qQu
p70
I19
sVpU2lBD_W3VNvpzKZsRzi2Au
p71
I7
sVYuuzQtcqBpuOzi8ZJqfzTgu
p72
I7
sV28mNjM4cg0ZzOrsib5L64gu
p73
I18
sVVV3UzNU2D5OkDpwgxtoj7wu
p74
I19
sVntbKUW9qPoZSWolthyQmyQu
p75
I38
sVu1KWcbPMvXFEEYkZZ0Yktgu
p76
I39
sV8dbRf1UsWp2ktXHZ6Zv06wu
p77
I40
sVfEmvuLq_5TjUnNspMz1V5wu
p78
I18
sV8bs9XD_S41zGdWAKSijAtAu
p79
I18
sVWCBz-xTApNh4u1VA_HKNLQu
p80
I39
sVgc4rNAgbGydNMAPJ85FZagu
p81
I1
sVCwkdQfIWMLFPpa14i8it9gu
p82
I42
sVFFfBjFZWkjMnlZPwbufAkwu
p83
I10
sVRdWhGfwHORbIEyFj6YbZowu
p84
I7
sVi94sMKEeWy2ipDaTqyK1Fgu
p85
I43
sVnIzKqL9MzOZwoZZUdaJn3wu
p86
I44
sVoofth6_3PyfQiqCa26dUsQu
p87
I41
sVOD2Kgy7ofGFm8NCICkqeBQu
p88
I45
sVHvaVgP0S0dFaCbBDIQIkagu
p89
I7
sVFHDI8M5sm6lrZXNUBZAOfAu
p90
I7
sVflYl_hKWMNiTKhA6k_V48Qu
p91
I46
sVJzla1XE7_BIgoEZgplPOpQu
p92
I7
sVJUpufEtSZfDf0L-32XO-bAu
p93
I0
sVTPqXQMBaRdn7wYUP_diphQu
p94
I34
sVmn21uUTqtrTrXk_YLJjxcQu
p95
I6
sVy1jPEGJAGJkgrAbBIijWLwu
p96
I41
sVshkOSzUcN2hjIJpyufVS9wu
p97
I38
sVGE-34FoRSTKuw8OWBc4YrAu
p98
I37
sVC7yR7r1oHDYHG_JKlTeK3Qu
p99
I47
sVATxbUTytzwQw7Ogu2SHGvAu
p100
I22
sVNgbh_IP-u2aBitVohsMfxgu
p101
I19
sVilf7UPi_14f-rDsbtlDZvwu
p102
I4
sVsaiZmxzBIowJbMgPBW1Nowu
p103
I4
sVJ_1oXuXGS1fmiOBhYyxsOQu
p104
I49
sVJrcKt4t1DYpFO1H6QRnTGgu
p105
I50
sVV4VW69mBsRzfa3mLmyBqLQu
p106
I0
sVkBi1dyC2WMgmgNqn0xXYewu
p107
I28
sVnhWH4QzGdHMx1IJu7Tx7twu
p108
I6
sVJzBhKwVBnrUUi4HDuPGx3wu
p109
I2
sVv8vNquA6KmUUfoJG_2Bozwu
p110
I6
sVVyzwBKnq-LJ8OjvG0ZTwrgu
p111
I21
sVnkF7xDv8v-HITsU8KvrjNAu
p112
I35
sVDmQsIAMTwdj7hXKXLnD7EQu
p113
I37
sVmLM84zUn8POCWEq3dTxX9Qu
p114
I18
sVhuz_xx7ae5shBypi3XO3Pgu
p115
I0
sVPV8vHeYbpF-XNl5Vb3mzCAu
p116
I2
sVRTyeCDfJJQC03nuZxRZtDwu
p117
I12
sVLdJFjb2w0yJOxH1_0JAqrwu
p118
I0
sVyXDSFOlhrTRGhK3EsPpqTAu
p119
I37
sV2SSHbXmy3K3BzBhojhNUAAu
p120
I9
sVCtHJ8YRU8Rnn-vEGhgoupgu
p121
I19
sVSvjQWAB1r791mGyaVTDvQAu
p122
I37
sVf4CExFYr3GTMSBD4BccDQwu
p123
I39
sVgN03qFYysM5DbgjuV6N0QQu
p124
I7
sVmlFupG8LJFaL4rvSTvCyywu
p125
I9
sV_p9EnnLQg6KDlIRU2fYEJAu
p126
I52
sVrenfVZ7QaPXyqGxsn3AOlQu
p127
I1
sVsstRW0OnkaGDZZOXt6mJ8wu
p128
I6
sVmLfjeWUJnNiqHEye3I6qugu
p129
I18
sVTRl5jiNFI2m0wfH6CqO3_Au
p130
I1
sV7Wr91hSKfgkKnkyhLOlwwwu
p131
I40
sV_CqFiqRtltyla08VndhBrQu
p132
I1
sV-xPKyCJiK9q1OFZ7GCZwBwu
p133
I7
sVYF8uJO3OOvM-dlVwoLbitAu
p134
I16
sVRAWy3YCE-jwfyuGvwzUaqQu
p135
I18
sV7P9okhRRYG0hz02Fk7tRMwu
p136
I12
sVxqQMyOzggrDR3vQ82b79twu
p137
I4
sVhfB5Aa8euV8dM0YvP_iLhAu
p138
I7
sVfWgsVZ18ABXZ3hCblnr5tgu
p139
I30
sVppieFpwvsS30LaWtfW7IVwu
p140
I53
sVHrGCBT6-x1iFupKCWAa_tAu
p141
I38
sVVQClej7j56XQO2sBf4qPWwu
p142
I35
sVhYph1O9SCO3B5tFmqzdOSAu
p143
I54
sVQSzbhLINnOVxYEVhuTituAu
p144
I1
sVCUqtEmjVwslAXXcephcFnwu
p145
I9
sVtNpfNLjxS34wmsroFemoNgu
p146
I56
sVm1AHP80IkjNIZYPuJnGVFgu
p147
I22
sVr0vc3x6NjYxiYiuvhi7Q5Qu
p148
I57
sVKwUOJ2v_2SNZonrdLw1gLgu
p149
I0
sVD5HexnkldyKVnr3J4ocRUgu
p150
I18
sVvmvCjcHVTFgLG7rFSuGQjwu
p151
I0
sVN1LxItfmm-AfeA8YrJiPTAu
p152
I36
sVUuOYE5McVFfmzkZ4bRGLPAu
p153
I58
sVSC7xQZ_7l4dex8JNMHg8SAu
p154
I59
sVW7Zlyvl_ZZmgkDbJaYPMMAu
p155
I45
sVpHq0HDCgeWiX0UJnQWvSwAu
p156
I49
sVhvhJGbKTX4AscnhQaB1TLAu
p157
I212
sVgUXfVNgnNF9WU73T-d-FKQu
p158
I18
sVMWjF-59mIgLLKCxqacI-nwu
p159
I2
sV-h7ZWmW8672UzDg2VJQSCgu
p160
I1
sV34gJ_KlP3RM6jotNT6TcDQu
p161
I61
sVA1D84JXibvLN2QQ5SK35qwu
p162
I0
sVGNCh2HzSVYsS12o76qtUiQu
p163
I7
sVT7J9ae0wTskrI_Bgwp-4cAu
p164
I7
sV-kIvLyWpY17aRa0vPp-RmAu
p165
I62
sV5kJYTUtFUJT24dWNs6eW8wu
p166
I18
sVoCFQmDotqcyIYAY1JyKUPgu
p167
I37
sVMHqOB1BNjO2VhvbsMQCaHAu
p168
I10
sVU4J9zoivRJGsOJdjACaOlgu
p169
I0
sVdwk15l9aIvwfEWS7ZYq9Agu
p170
I39
sVqbfQRHLvZk5WSkKY0l_lMwu
p171
I2
sVQGwRlG8TRx77YT62EK86BQu
p172
I18
sVfMpX0i0xCCkqr4b7Z78p9Au
p173
I63
sVJ7p0bfHCWJSnrsJ5VyBecgu
p174
I0
sVGUT7v5133GqMvm7K1RnPWQu
p175
I21
sV8KKUnoYOGRs8nMQLbwoFfAu
p176
I0
sVyOW_07olC5HaDlrzpEKECwu
p177
I0
sVjbnMlMcBKcQa6uliuXJ7CQu
p178
I64
sVhieVDOyVxxitOi1v2m1lhwu
p179
I18
sVNM7eMwoC0dluaROM1rTbGAu
p180
I30
sVq3AkEe_ikhwsdv5BYenQhAu
p181
I0
sVASenO-NcZyEoJJw_aO7C7Au
p182
I10
sVkWIyJklrVAxWQ9mi_X5ntgu
p183
I19
sVkG8jkVFgOAOq6Ht6RvAjEQu
p184
I65
sVm5px5l86OfX_bibsMT4P7wu
p185
I39
sVYfCbZF27kndPKl7Px9lefwu
p186
I39
sViy-lnju3UY_eap5oztdkhgu
p187
I10
sVfwgxbcQhcp3wDqHDNA4BbQu
p188
I9
sVZXTIFYJPsqBDeBaoGKJc_Qu
p189
I38
sVKTP77-8cmBfdDyzIGVQqiAu
p190
I26
sVXe3roFVZWGe1ABkuhN9UCgu
p191
I18
sVEnvG_kewvG5PqUqNSgs9Iwu
p192
I10
sV5fDdjGyEjwABq8f-Gz-tZgu
p193
I9
sVEVAjaGIKOE1bN1Yf1zX1Bgu
p194
I66
sVHestW1GKSkmUs_vpnauE_wu
p195
I7
sVhC3XkU_GzvypLHfkX6770gu
p196
I0
sVf-HPPzAQslph612-4iVeCQu
p197
I36
sVhVnHDo3ZZiTXQV9n047uygu
p198
I35
sVDqQzkxbhm4rEJpsIT3XxOAu
p199
I67
sVhqGS_HnKxlVtQUfmjYdRkAu
p200
I68
sVybex2-iQv1Cr05LG-FUY4Qu
p201
I4
sV78akFsTwDcO0i0NlDZX3SQu
p202
I1
sVY1bWMPTcTf4GBP4OcTGnTwu
p203
I43
sVL3NMj_HI3b6NetSNjYNCfAu
p204
I38
sVrhb8tUO6p6iUgDgm4JMc8wu
p205
I4
sVvB6-7mjP9LzqqtKdbVY5WAu
p206
I0
sV_9WdLStCJUKWiQhyCzckoAu
p207
I18
sVYSLvm0K2CDXKl67WkpgCxAu
p208
I18
sVuxewWHHEu1IjjUeJMrjsMAu
p209
I2
sVTo6VfMpjPuiixoT4uq_mIgu
p210
I175
sVB2-AC4_ewUVHI3BPdDkiegu
p211
I4
sVtcDy6W8fa48aoFCyuWv2qAu
p212
I0
sV_FU448lj8RUeTbMulGMZdQu
p213
I70
sVPHKe2H1tKwECKNSX4iTTMQu
p214
I18
sVDDad5K6GNA0sXB7N1OB6wgu
p215
I71
sVsaLlX6WK6rSy6eShPxnkzAu
p216
I39
sVsQCrEqtcEJBUDx_1hS0YXQu
p217
I72
sVYVyzM5JuquEGmSxWrlXzegu
p218
I73
sV3_RjaHskXCu83x1tDhoUBAu
p219
I28
sVWsJo2lfomyGzgIFmVtFgiwu
p220
I18
sV2me-yA-ogtpYx0Ai_83YoQu
p221
I18
sVH4mubVDYOSNN76taoRGItgu
p222
I74
sVgTCM7qlVrwdml-hFB6aJqQu
p223
I30
sVm0vGEQgFJKJ1WXnvlb09xAu
p224
I10
sVN1Q6HiZvnZHjNU712Gymqwu
p225
I7
sVOvSUHE3POahr-IsC_VFbbAu
p226
I12
sVOCsrk-5wLPhFMMGZUQasrAu
p227
I34
sVqHJ-E17xc_ZtJ4T32qc7jgu
p228
I43
sVSTRH5HCQ9lkCMNy5R7pq9Qu
p229
I18
sVr2vglPGmMuyo1BqV91l56gu
p230
I6
sVmSRwdGB_oMEIxtY7I0SU-Au
p231
I36
sVeu4EDnp3n86L5LtZGrb2EAu
p232
I18
sV68Ci9UgVIVEiCGXy05loLwu
p233
I75
sVlaqSobmMSM_DkN82D5sEAwu
p234
I76
sVtVIu_vzLzZ6trhuqFcAZWAu
p235
I34
sVZJ67j5aOsEGT7_qzL7q-RQu
p236
I0
sVG7yQgNDT1SRG1zv7d3ZvWAu
p237
I2
sV8AT9WSphWIIC2k8lh__izAu
p238
I39
sVJW4iRjIP4gGgl-A8mhCKGAu
p239
I56
sVSAAMpBGcVVNAww_4yZpIoAu
p240
I100
sVeBFXojgTo2SWLtzv7jJlxQu
p241
I18
sV2yRfqW5p8Gzr9mQ0q3uRdQu
p242
I0
sVxB9Yze6uC1mJXEzA8wpWSwu
p243
I6
sVmQgMzoq1Boy_xQViqCidOwu
p244
I77
sVio5b3aooPSgC0gFpSSrqNgu
p245
I19
sV8JC-Yb3UDUv2FUl5ym1nVgu
p246
I132
sVy88tKxe-6Su9vGr9uM5i6wu
p247
I19
sVNZTKuqR6R_NwT5tiIvnkZQu
p248
I49
sVt_LIUWxS4Gn7FshJfSYWTAu
p249
I119
sVvYIZMcpFFbMa157wzWbBcAu
p250
I30
sVnEL-_kLeN37CSR9fXFY4zwu
p251
I69
sVQ_LkJOgIvNHq4v6lEHh_twu
p252
I28
sVTWIg1Jx2jGiC8UqaKpNorwu
p253
I0
sVWLowOhyzS0TNUemAwEryBQu
p254
I39
sV56R-8WllOzdN9aZdx8dV2Au
p255
I51
sV8gM0VBG-5vlS7teGszclKQu
p256
I2
sVytr46wNbedr8-iqSZngl8gu
p257
I80
sVhcpEWVuP0Kfhz1EHtU-gXgu
p258
I81
sVylWOj2y7TV2e3yYeWhu2QAu
p259
I82
sVsQAjHANPfjOvVBQcRsxYNAu
p260
I16
sVyneTxW_9TTRXTOgJDH9fnQu
p261
I37
sVngnrTCBbOqnvaaneg2KXKwu
p262
I134
sVuFedFP4YmCSg9DeZ47F0sAu
p263
I108
sViK92_Kh2P70O7W7MYrCiYQu
p264
I38
sV9g3qYzbtsFBKE9308LpDOgu
p265
I83
sVahXmdKsanBCT6ImDa6dFhAu
p266
I36
sV-Hv0mbeVlO2nB-6cYcfFMgu
p267
I84
sVGOwr-GpWKBzf7vhcc2cH9gu
p268
I18
sVsBqEuMZAa6XXGNzfM4ogyAu
p269
I4
sVk1iTMp7uW1CSQFCq4jl56gu
p270
I113
sVaRjNSAd6bFPrOvaFIKRziAu
p271
I38
sVBmjE5qMDap_IC6Md4np5MQu
p272
I56
sVMAvkqp_gDtKYU1d981XnwAu
p273
I85
sVUdffjPCujj5FlYiKpd5OVQu
p274
I0
sVo9qVoftkxrFwC6W5PImouwu
p275
I7
sVMYLBku4sRCoZmi4Z7yESGwu
p276
I4
sVe44rUPb0ne7hcmEo6MzRGgu
p277
I34
sVSWQ473Py5zCDHU4IbxlE2Qu
p278
I16
sVd4zmaIWxokvb0RBDS3wjqAu
p279
I0
sVN6CCk4JaGoXTHteqYCKcVgu
p280
I36
sVXfv8_MeZi8Dev5hx5-ISwQu
p281
I18
sVgUr8qs00wFAk851yHMlgRQu
p282
I0
sV7bjP7WcPi6rEqEHsudY-WAu
p283
I0
sV7kpqx2qdD-PW3dD76GEbkAu
p284
I38
sV_h2h6TX5xhhWFIPMnpMd3gu
p285
I18
sVEPROVap0M19Y6_4uf3eCmQu
p286
I0
sVnbxsXJHWdrT11WfvV00Z6gu
p287
I30
sVEAJjMgKIjiaVb_2Q9ROeCQu
p288
I7
sVrMVVlPc8515khcIqAsWf1wu
p289
I86
sVH8qjxp7LTjmXZoW2DGo8rwu
p290
I0
sVUsShQth4ThCaxi5rvxGRKAu
p291
I18
sVcPiwumKWb_unRZL8HqO0SAu
p292
I37
sVD5J4mKahKvUBJUTWanZwdAu
p293
I18
sVj-Pa8FpUKNLh8FTy-3kxjQu
p294
I0
sVEdTOfyShPKmil_A-IWdTPQu
p295
I18
sV2BS05HwuXcnFL-YqlyhtnQu
p296
I36
sVMfzQr1wAuA-Hj1eNHPqAgAu
p297
I12
sVbpgpImWo7JBvZGJCN33mSQu
p298
I18
sVSEDFpR4oMPKqXMjbJiMGogu
p299
I65
sVPahwPVfd6BkDyO8KCFEoWwu
p300
I18
sVXd4bWdBZQRcaEThtiGFl_wu
p301
I9
sVWcnFWEVx9HO4eplGqvvr1wu
p302
I56
sVsHm-7z3G1khyznqSCHhDYwu
p303
I35
sV2G4U26iJDUCpMxfFfKW_mgu
p304
I0
sVnW8ZMWKE4OK3dxYhP8WsNgu
p305
I41
sVu1IC7xORIeAkJEt6n4p3_Au
p306
I2
sVltCiu6DRJT3gi-EF8yivHQu
p307
I34
sVhdARWhh0Jar1Ht-5jQ4OHwu
p308
I87
sVz-JC1S58qaW8WNiOzUh_TAu
p309
I30
sVM5654oz7KI1dRdI6og6flAu
p310
I88
sVc_wwf6CBduaVpt750ScDlAu
p311
I6
sV7tA04v45dzG8tADZGLrCzAu
p312
I89
sVosTJkim9SGhRBRZ09_hMewu
p313
I9
sVoRif0IN7pqqWluprQgyWjwu
p314
I18
sVBnM-wcB9r21SVkAqfQdYCQu
p315
I2
sVuvxM4Q5d8yKGf8VH37wr1Qu
p316
I21
sVOBhbdah05juMIUIU2ixoOQu
p317
I18
sVq_YBQZC2bchG4gQ7eaW8FQu
p318
I126
sV3FLvP7zGP6fEe3lJK5AwYwu
p319
I39
sVn5PtmHO-PSHiyseG56XZtAu
p320
I34
sV-EyEj5BujVFisco6OwmR8Au
p321
I39
sVs-sh8UE6b-j0ENuQnGI1RQu
p322
I53
sVCz14fLzWMXg-7-oRpBGFagu
p323
I90
sVm21EE2_CqPzpXdKsYsbVIAu
p324
I35
sV9PgN8QuQ6jhuLV6RfdLwdwu
p325
I39
sV--65q1FpAL_UQtVZ2PTGewu
p326
I7
sVYVYq9Gd7noSUDaWPUPgHgQu
p327
I91
sV0T1Q8nuMDgkXfeab8MkUjwu
p328
I30
sVslVCyH-xCSj4caCW5it3agu
p329
I90
sV1eQoYpHw2jN32TmSOrxJCwu
p330
I2
sV82XCRR_Sk1fFOpRsTP2ApAu
p331
I6
sVyWx48PCuaK967jG_UdGxtQu
p332
I153
sVECtwWOp6UXNom5at7dCuhgu
p333
I4
sVHnnKmgBDYIz-HDF8z5nbHAu
p334
I0
sV7GB3QKFUV17d1dwfqR1T_wu
p335
I4
sVC_uA1JTMe8QteqDEG0UjyAu
p336
I41
sVkffxYQVQsEpF1DVlQlcGCgu
p337
I92
sVB-yfbXuQta2lDJC2o7pb6gu
p338
I16
sVX76Ja2Np2Dvy0cDTE03drwu
p339
I93
sVPY6a5DTygDqf52eQMtii5wu
p340
I9
sV91POypmo6V4sbmbULEUqWwu
p341
I10
sVgkwc5gC9eayRtcJ5X-z8AQu
p342
I0
sVKGTKjxfFIUrNwdJkCIebtgu
p343
I94
sV6m_udDRnUR6GI53FVF8fFwu
p344
I95
sVObvqA8Bc4Ij6CQAzeMX-yAu
p345
I16
sVvG8e2d_hxqpu2fW68kTESwu
p346
I60
sVrl_o0q8z-Rv9bneDafM0KAu
p347
I56
sVziXqSKECE6qefdomOKvIdAu
p348
I18
sVm9_1jCgU7mvSkL6oLPJT5Qu
p349
I10
sVe4TQFVfepzHf--hnBsjntgu
p350
I7
sVS_S06oA6xGAPr-HC1kLVlQu
p351
I1
sVast7yCfvhIwaD53OFSXoagu
p352
I0
sVRnbQiRQIlp2AIxRCM0gPRwu
p353
I53
sVOO8KoP-ht10ka7nDH62mfAu
p354
I38
sVClYB5q9F4S_otGL5NE6jVgu
p355
I4
sVbG-r4zndr1xuon0pHbUrcgu
p356
I18
sVVs6r_qruKjJ0QfHGm0hJqgu
p357
I0
sVt58qGXYZp9nMVFyaZKqvFwu
p358
I10
sVRGCHoFd5ND46cLtdyJHKjgu
p359
I9
sVUOqjacdOnwkLSyhhUceN0Qu
p360
I9
sV0Nhieu1aPqT4Brv1P7-9tQu
p361
I10
sV7o6OfRHsmcv44R1CjAh8dQu
p362
I46
sVn6SajMgssFQJ4j6TRYmNxQu
p363
I18
sV_sSWITq7dNpWTW2_-q1lowu
p364
I16
sVATlqgcQwb3XzvDnq3Lv-0Au
p365
I18
sVVyjyrNIqSfDG_1Q6vHZa1gu
p366
I16
sV6wpEHXevnaIZp2kUTUfhxQu
p367
I56
sVyNVGe_z9hHxbvpa2Ns2JIgu
p368
I0
sVlcgUBCrznwC0FohI4jgMygu
p369
I56
sVWf1x15Wc6xuA5jtuWlTV8wu
p370
I0
sVWW265asZNnBi4NGAwzvFAAu
p371
I16
sVYZ82I51Zedr9U6e13DO82Au
p372
I42
sV1mpW-DOpqXb0MQfExwI3mgu
p373
I30
sVlzHNLEvRNFN-RQFmczYNBwu
p374
I7
sVTN6ZI_NNUw8OAvODoxTKCgu
p375
I2
sVACCUr3Ydw5XyPCmoIEdnpwu
p376
I1
sVYiuCu8bWN3moIhhhfvp0CAu
p377
I18
sVA7B8l4bO15tVkpD-5TD2zQu
p378
I97
sVncCSMaszZYkNS596yYwesgu
p379
I98
sVDfxzHI4TjGTUuFELonH5wAu
p380
I18
sVBPde0dz-vM4_fZCNPRT8sAu
p381
I2
sVVBEbhE0ISjg6xowGNiGmgQu
p382
I6
sVpxD7uZarYMDtdTY_pLqDAgu
p383
I29
sVzYVutbW7qMaa2UPYZItR1Au
p384
I19
sVPfuPTOzx5u0vucw4fLllKwu
p385
I99
sVlt8EDfC80IpHzGKlj8qGpAu
p386
I43
sVVCK3eQKToEkmu8jdSEbTwQu
p387
I37
sV3w8MrAftLHUpcw2TkeEqEAu
p388
I30
sVh9d3VW5RTJymoFoLnN60_wu
p389
I100
sV4TmAgCeJMt1lIOfjmWmdWgu
p390
I101
sVZVknD9b5zcj_IL-2wtYwxwu
p391
I91
sVSsDYTH14hF6GL-MckCImiQu
p392
I18
sVZdX3vDHav6AjNtaNzt-gbgu
p393
I77
sViggXjAwG3PNN_MtRFPSIBQu
p394
I7
sVHa4pc2q3HqczrifpU2K7pgu
p395
I18
sV4mr5Ys9VKe87c_kgpRbQ0Qu
p396
I7
sV8p8HZNmrkUBtMx_vmW9dNQu
p397
I136
sVpw-k3TMjt1ZNB2-iRVTDlQu
p398
I169
sVq5bhK9xUH8rCE92I8fEGoQu
p399
I16
sVb4fwPLVP5vmngBD3k0siqQu
p400
I28
sVKEh7CQ5m5Sy0GFYAeTb-swu
p401
I0
sVkgyv3ctYEZ0ACslpoakunwu
p402
I22
sVzKyJDKJwAfWGB4HKXp9snwu
p403
I36
sV-v21Tlq2WsNvo62K2Wb1Cwu
p404
I1
sVkQRXNJHNnvxojBXLulxozQu
p405
I6
sV1gspFi59uDO00PSM5LMlhQu
p406
I51
sVazj8vFl7JuSyHqamSVhd4Au
p407
I0
sVbMS0gkby3k9VRI9GDJ4H8Au
p408
I0
sVULm3xTh4tmWkIWTLEyQBQgu
p409
I0
sVJ8QKQshbOYDxgFR9MwCKYwu
p410
I5
sVUTt78HkUgvATBJxhXIPZJwu
p411
I1
sVUxnqej_rEAj-jUOXdk1Kxwu
p412
I0
sVZcEstCa4fDhNXrkZ8_Gh0Qu
p413
I102
sVl7I6khaGzNsD0f3oykVtYQu
p414
I10
sVdrYhWK0W7vE5fq4QQ4S3RAu
p415
I16
sVyciiu1N6gqG65dSRyFyE9Au
p416
I104
sVxUDUNKyclCLjwVwsBN0ZBwu
p417
I255
sVkNO6w6EIKo8u6GSykOHBLAu
p418
I65
sVrY0T1Sx-kSeSHgnPbLOA1gu
p419
I16
sVzc7ozZNFChVFmilqIL9Qygu
p420
I10
sVxR7T-HpPJRFBh-wO0c3XMQu
p421
I0
sVSLiKl1y0kEsql064ApaGwwu
p422
I28
sVvmpK5VVMxsfN-MHzX0AXkQu
p423
I4
sVNXnbBRdj4XbsSTEQXPvywAu
p424
I41
sVlp7ybpJnQHBqo8CV4EbmnAu
p425
I18
sV374kh5ThlwYBJMEFNRgPLgu
p426
I0
sVEzjJ536eGHoR7xDF1XgeoAu
p427
I7
sVFdAy_l58AhjBORach7h70gu
p428
I59
sVDBGuQbQy0tPe7Muoawq08Qu
p429
I39
sVpT5kaEJow8YG4G0avzLq5Qu
p430
I10
sVXdhfTOCIUkfIua4icmQ8OAu
p431
I0
sVsaNCRlGYQEBkgpvalJsvRwu
p432
I10
sVgB5gmjulziNkE2brvm3w9Qu
p433
I4
sVCWYHXKPXqP4KgY3TyI54lgu
p434
I1
sV4nv-S2c76e-IvterupcA2Au
p435
I105
sVaUv23ZEyaNbqR4_hyKUDwQu
p436
I36
sVMtgH4ksVOPSF2pAq3Fw2gwu
p437
I39
sV1n-9uT-3itLbKVpkrdA6RQu
p438
I22
sVYoBgKOdfpGH48LpIDSfoQQu
p439
I7
sV8utIGcset6R2eTsFJFX6GQu
p440
I4
sV4uS4fudBkPxlcXR4eycb-Au
p441
I18
sV4ozupHULqGyO42s3zNUzOQu
p442
I7
sVQEy_xoEcmL0y6N8YLPUhCwu
p443
I18
sV3Zi1udoY2iT9s8Q3X6tgZQu
p444
I4
sVDfsrWRuuiET_-CEupb5NdAu
p445
I36
sVB8t1hkG4EX7ar4r9PCEJMAu
p446
I106
sVyXJ1o22NYRazcSiXMkslXwu
p447
I18
sVe_raEH6Y6fdS20UWGpZ5Nwu
p448
I7
sV_lE0CuNLpl0VjSjvergZZwu
p449
I60
sVVRDiQMV8GN3JySRjmdraEgu
p450
I249
sVjLBh-z3JrJkqJfn5VN9OJAu
p451
I36
sVYVoYGVIlQpsxmiAFBiltgAu
p452
I41
sV4qGR9kNFDYQ4mQREG0aRJAu
p453
I16
sVBgY9LwHmY8BO_lPI3pNRFQu
p454
I107
sV77UjgOU5vayzFUCFUhykgQu
p455
I16
sVvN25DTdMDr718zMCAgJvQQu
p456
I18
sV7FCQyCvu6My5WkKsLInVKwu
p457
I0
sVcCwj4RJSKU4-o9ZZ1VTtmAu
p458
I41
sV7b6xprWhaEQxJ5LnxizZzAu
p459
I50
sV9NQaHuHKvSiyxRiNyqnZgQu
p460
I19
sVK2t_85TGaA5gPjsG58FTHgu
p461
I41
sV0Dngp-JFYvvXD4cy6plvbAu
p462
I22
sViR8iTaCOjQCM-JG4qf23NQu
p463
I16
sVwNqwKWaRjClmcKsoJJRFowu
p464
I7
sVxW5ajZ7ke4IeRmJylPKaggu
p465
I56
sVJaBe12H_-MQ_0a1Gv7znugu
p466
I28
sVXEod01j7vuZv9bNKhKu7OQu
p467
I18
sV7EJJUCl3lHM5mYlFX0bLEQu
p468
I2
sVYgda3eaZvqGTguTJLTZp5Au
p469
I2
sVM9cZwNoSKQDUVwO0R8UwIAu
p470
I18
sVVhI42ygsJB_so4eANEzRkgu
p471
I56
sVSagzjIVQjjw416t1uxulDwu
p472
I30
sVWEXsw5ads44QmglVA-t1GQu
p473
I37
sVLT3L8-tthzD0IakgXm81pwu
p474
I36
sVQMYURmVQVAx1t7BxIb2dXwu
p475
I53
sVXrfI3nU_EgmhPwfXLF78MQu
p476
I10
sVbEJMn_jbXWHTmDPzPOflRwu
p477
I18
sVqeljTFFJaZE-HJ6RKx0iFgu
p478
I18
sV8p4at4zdzCpueAmSBaorZAu
p479
I7
sVGhCA6N7sRYZHBr5QKAcCWgu
p480
I7
sV-qyZVaROHUDni-MqfCzGUgu
p481
I0
sV3UDYuIkrdCafFwl8MLxeVwu
p482
I18
sVU7hTZ-Vfh8d143I93ICRFAu
p483
I38
sVGVH_iuoPc0aP3ZNYlWuKagu
p484
I7
sVVW4vV4MydSfabCPqhXISIgu
p485
I0
sV_1OTipGDKze-M0XaYh-kXQu
p486
I36
sV6YyyBrTw-FaF4Mit22uk_Qu
p487
I76
sVC3VpWgCsdwyYs6Xoy1JcJQu
p488
I108
sV8N481iGgsUYA1-TtESOntwu
p489
I4
sVw4suxL1zlxsihVlugZZDAQu
p490
I7
sVFz5il511JS0pPxRKIh5Guwu
p491
I18
sVfkZ_t7co7VxO2jPI9bD5bgu
p492
I73
sV8XA7D9BwnL-Xxw_yLwL8hQu
p493
I109
sVTXJ8YldcRE_8RnjnwVUhXAu
p494
I34
sVYn7u-2stfeJNCP06ssw3Rwu
p495
I110
sVGk3VxZ95do0-WgeVuGMVWAu
p496
I12
sVtlpmhQ9a-CaNeFuBNfg-LAu
p497
I111
sVcebfUwMZxY30pgjiBLw6xAu
p498
I12
sVpY6_ew_kvtlcUftSVtkRygu
p499
I22
sVAA5KmfoNYJPb1fbF-XxRywu
p500
I78
sVBrl48VfxNW-euavSmmGDkwu
p501
I22
sVUIHT5FjnQu99trc8mueQEgu
p502
I10
sVEflgGnTQzv3uDZ9rgQGbtwu
p503
I35
sVbCFOfm0WqzIoFIwPE6QIngu
p504
I53
sVsG3_fRCEROn0-9TzlawdlAu
p505
I114
sVf5nCzPxSauEc811_Zt5k4Au
p506
I112
sV9v3ErBYE7gn-uE5ZPH0BiQu
p507
I7
sVvTvxsif_dlYJOtFxS-t2RQu
p508
I18
sV3PPh2uJLpS5uSsIubuZn1Qu
p509
I64
sVkRbQXbWCjn3lwWyIQD9cXwu
p510
I30
sVN6q91wGo-JY1yo-fMycjGQu
p511
I18
sVDPMUGzrjTwX5uJtrmWCfTAu
p512
I0
sVKmixr95qA7MSRiM_m8ZHXQu
p513
I2
sVzTs4os3QZMQGJNv5IyhGPQu
p514
I19
sVmVPISwK-W6gmlbR5oemOsQu
p515
I10
sV-yZJr73bAoPtlpHUL7JBzgu
p516
I58
sVNTSDlVbBNw34dV1t7eFRNwu
p517
I39
sVtIoWonTZIVGZeHH9w6dKkwu
p518
I113
sVDOJM58OkGSsIdk2qCUZnLQu
p519
I114
sVsic1oXdir_3wyCdKlqzhRQu
p520
I0
sVdUZ8aLUiX3_zq83nnlytjQu
p521
I36
sVIFCJNXabjcuTRLzr__B3owu
p522
I72
sVXUukBnu0NCocezQ3bGmeowu
p523
I2
sVUuq_2GXv7UPp5m9REvWw0Au
p524
I21
sVe9d9EQqOd2-NlX8WFx0aEgu
p525
I7
sVwUEp87FqOB9ew27Iz6zk_wu
p526
I7
sVMLaaZKZiNkLqeBOH5y98GAu
p527
I18
sVWVO0fhZlCZ2k05nnxnnyZwu
p528
I41
sV3xVwlgww4Pw5wc_twrfOwAu
p529
I0
sVPLWZ9-VyjtvDbZAJP9n9wAu
p530
I2
sVZhnXBRziSyXZHG5B3GebcAu
p531
I1
sVIZ0QPjvhqbZg7pgONwYoXgu
p532
I18
sVkFTTt5Ny21viUUsjc-uFPwu
p533
I10
sVXz1w0h7wDI22IZKi-CnrHAu
p534
I4
sVHhOZZoj0Gfd8xnuwSgNZgAu
p535
I22
sVKFLg5vUZm8TV4deHGzUoMQu
p536
I10
sVMxA_wJOmUJxN1AmELO0RjAu
p537
I18
sVV9rPKsWM0qaFyLPY9X-n6wu
p538
I109
sV-FkQza9zDG0ugRSM4FLbHQu
p539
I18
sVMU1JHF8Gj6tEjSc0gZw9Zgu
p540
I37
sVMex8qXT7nR89uTKX_qtgSAu
p541
I233
sVVjaakbsp9eeOLChcrNwl8gu
p542
I55
sVXOST6fNtPAUg_0JJo5ai6wu
p543
I18
sVPShy2RYNadDUhJf4ErOJ7wu
p544
I7
sVUL5__ullYCgKAHmjyBFwtAu
p545
I18
sV2_Npj9QcohAoSZBaqiOqZAu
p546
I10
sV188v8fiXebMrsPAB4PJ_PQu
p547
I7
sVNXCG7EJEY76LiVqhTz64ogu
p548
I18
sV5yQMUyoZYCVDQiftf0Uw1wu
p549
I4
sVTxo4ZGYBVPVLjbKHyCr8aQu
p550
I16
sVH68zvn25JEAeOI2pCKckXgu
p551
I117
sVmTeK5mjxgZhBjvvZc5mViAu
p552
I88
sVYrkflTZm3otwskJlEBtqkQu
p553
I118
sV9CIwY0Uvy9L0Ss-Z4YGwBQu
p554
I18
sVD9aj6AjCyLp-zp8fozL8aQu
p555
I16
sVIS0WyCkOeSXbEzSmASW9EAu
p556
I38
sVB3oCDlO3uBUrFQu-xmr6uQu
p557
I21
sVZ3qVl-1JgYnAe4py6VC5ugu
p558
I56
sVAdVBY7Ow_ICQLfVEbf_nTwu
p559
I36
sVDi_8AmiLBwNRrE68bsaLMwu
p560
I36
sVRzy3ALarkc6Q_QmykVIvcgu
p561
I18
sVI3xKqgX4XDiz72iUO_lN1Qu
p562
I41
sVva0CpyGqJsF26ZHHn7-dAAu
p563
I120
sVTNUX-baP2gvFDajjErgsFwu
p564
I121
sVGJrGPKF2xxB06Es6aH1VWgu
p565
I22
sVESrt4JUzfOxDEK_rNQIWkwu
p566
I30
sVNAohdbmsThewbeUkMMBohgu
p567
I40
sVnURs-n-ucizNeoo280nmTQu
p568
I10
sVz-X-cAwVB1wIsAJnxpwr7gu
p569
I22
sV3ch-JeRygCmrXf4mwZ9JTgu
p570
I39
sVkjPFNrvys5yTU0TnaixzWQu
p571
I9
sVx8y1nxyvDJ7fOySblW8mwwu
p572
I112
sVdUrVJl5qi2CJWff7s8HJNwu
p573
I7
sV_7QOC4oFtzx7j7B-TrVJJwu
p574
I4
sVwPwoLUKJIeCVp6_Vh7xpAQu
p575
I122
sViTs6ytEvovRSthP2PrvMAwu
p576
I1
sVq-blnoObtPWH6swd6ZgbFwu
p577
I39
sVXWGCBxSa_ZlDErwj6969Bwu
p578
I10
sViAXUAPxzKXxWMCiXLjY-wwu
p579
I18
sVO-zVhDi_TeMs6R2Rz31g4Qu
p580
I12
sVr3_JcUFWGERe8ytAHQPDyQu
p581
I7
sVL0OrG-U45IWF6EZtm2dv8Au
p582
I22
sV5tj0n4tofXTgvFzSs9m_TQu
p583
I0
sVg9s_yIDg9uA3RufY8-cqtAu
p584
I7
sVHSKV9gfn9ZkeYRlPWZvAOQu
p585
I34
sVLoSifdxmrOj-a8xcDrRJDwu
p586
I0
sVkv2RbtF09MZtAfOCSsk2NQu
p587
I16
sVzCnSshZN3-96iXHFaowwKgu
p588
I18
sVuzeuP7sGm7Ez8TSIVtI9rwu
p589
I0
sVFgauKBp6w-_8hOY1CRYMoAu
p590
I4
sVxiJtOY01ROyp7S0UElOmpQu
p591
I2
sVN4BnjZFAuuAUTjxs93SYlgu
p592
I123
sVpEVf8GRshP9HUkSpizc9LAu
p593
I7
sVPZc3S5ql5-VzEZm9TuyCpgu
p594
I2
sVkpdpcrEauxA2bhg-f05W-wu
p595
I28
sVQm44BhvzVRN5ugsJWK_Svgu
p596
I9
sVQa2arVXyiHhxRM6HqUfEVwu
p597
I0
sV8z2mKSqTW-4pLobAUNvrsQu
p598
I30
sVE3Koa54vrcDs5o6NoFSEwgu
p599
I53
sVISSbSYAIhvX3Ud4t8Tnczwu
p600
I38
sV80PHOfM8KOBb7xEQN4C0lgu
p601
I124
sV8LAf67lQTjtsS98E55MYrgu
p602
I18
sV0oCGn4N3SeUlEmmMPs1yYQu
p603
I1
sVjlr3OBS1_Y3Lqa-H3-FR1gu
p604
I0
sV_uL7OiQSfNsCd60DrAf7qQu
p605
I7
sVkUKH7Mbah6TVgV_9LEnH0gu
p606
I37
sVOnGKdONTxlNYyjX6KXhL0Au
p607
I110
sVsWpJ6hxao0yyhP56Re8gOwu
p608
I39
sVMcox0O0lsc95Xz-QbTiU_Au
p609
I18
sV4Ljy3d6c_rzBNiqgWioppQu
p610
I10
sV28Feb3wy4_CgUAyUTWhnwgu
p611
I39
sVfUs5XxOR82Hfrnyl4wi2QQu
p612
I56
sVcMKSCwNvOW60WlAkHvwiAwu
p613
I39
sV1eJMnv31Ii0ECSA_ldChLQu
p614
I0
sVmxr8p-Oex5zQY5qIs07Jpgu
p615
I36
sVlzzQ-pSFsP00aIH3bZgbAQu
p616
I0
sVGXt1b29IAQulijQWBwUPNAu
p617
I0
sVn4RSdI67_8z-8OXE5lwoIAu
p618
I51
sVoXkbuOiN9HDS3WgOQONfRgu
p619
I18
sVuVU1FyUPPVxzZ8jbye-rFAu
p620
I125
sVT--G8645Ew-iC8LQha1j3wu
p621
I10
sVeOVVMnFC5jeAInwiG3uNEwu
p622
I7
sVd6k6oKxaGvvtSwT5h_loSgu
p623
I16
sVOpjFNuQiyqh9Sms5Ex8Wxgu
p624
I7
sVqHS507CZSukuEabzwCUxqAu
p625
I38
sVWQX1Hio90vjGkASKM0v5kAu
p626
I16
sVAm7_Iv-T04S80ilhhV0TQAu
p627
I39
sV4kKR-tovPM9mKi1wt23D4Qu
p628
I1
sVLr6hbHj23X3q6m35mjMWOQu
p629
I30
sVef3cFjUXJRFTvsDv1gYhUQu
p630
I126
sVJAeTwZWx5MUq2_h7fZLKIQu
p631
I4
sVX1nTlg9in3_Ch8QR8Hx4lgu
p632
I18
sV-lSUv9egzYVoJpl1F_WHYwu
p633
I0
sVkRH3HttbiNoD-BgomNVVtAu
p634
I0
sVQfe65uvHyyFsNVQ6pqnk9Au
p635
I0
sVyYVyP-zg1ts8N-YRjBU48Qu
p636
I53
sVjfnhL65BMkf3oN49wdhPAQu
p637
I0
sVhSEv6hOHIJt2kaFHr2vsPwu
p638
I51
sVoubVUZ_h4enNSrvWNo6_ogu
p639
I127
sVflGaWWuV0WWC7eA8MpeQ3gu
p640
I0
sVaFh79e55bjxj5XD5vkob8Qu
p641
I14
sVPuFHZo_8ORYBZoOn8RHjpAu
p642
I16
sVyOS0c7p5vNafPSAU8kbenwu
p643
I0
sVcQd-x0BpsvjnindP2SDfigu
p644
I56
sVMM3iXIoKa-MrFMGTKUvb0wu
p645
I41
sVL71NWK9Rt6GIpsUn9rPCtQu
p646
I16
sVHGeXdydcZ9nDn9fT87z4fAu
p647
I18
sVidaTYCTmYZG53s5QNrJtMwu
p648
I59
sV6oGEG_Cwjm1A1cratqwTowu
p649
I0
sVOuaAwZIX__xEm4u8qrITVQu
p650
I30
sVnGOh3QqKtjBI5m_6HSIZdAu
p651
I4
sV-UQEVYS2cXZ-R-eoCisOjgu
p652
I18
sVx2YvACuYl25P9v-G4q27JAu
p653
I0
sVuLl--7BS9Cj6qOY2IqoyiAu
p654
I128
sVHfwO9GnaP-9VdI0afwgmrAu
p655
I7
sVv2rbY-d-yam7Qbfb9jkbQgu
p656
I34
sVYq-pv-frxMeQT9zWtdgUEAu
p657
I38
sV7nG2ux7uLpARvKZCwYTzugu
p658
I16
sVacOfAooftS7jdWlhyI0CQwu
p659
I18
sVkxf8vla67ccASvtFUO15hQu
p660
I18
sVhGitwL2Ixiq3C6mJyQrlPwu
p661
I6
sVA6bvZcQnSSLswDptnhf7bQu
p662
I6
sVJegks7c-o66A9LaxWYQLsQu
p663
I35
sVtfbS4eLs0rFtono6jE6djAu
p664
I129
sVQz_WQ6blpBBSaEwsofbB_wu
p665
I39
sV7zDqr2I0-xpw9HF5Ha54cAu
p666
I7
sVw9yneCFjacLCEEeG8ET5lwu
p667
I35
sVZMXfIGWKLr5cq4TIlKTQpQu
p668
I18
sVgxBX9WXHfIQ48Y1zK8EcEgu
p669
I130
sVsJ31VBO5h8zCAfVmAI90iwu
p670
I0
sVXqDh0QDMoMAaBvJcakze5Au
p671
I35
sV00PjBksrk0DYsG1LiJBnHQu
p672
I139
sVRdDOfgGEzDIv77kyiw-UJwu
p673
I16
sV6TL5xunZGs_2IerHl7sI3wu
p674
I35
sVAOC3bEkZ7pTiXRdz0Tgp9Au
p675
I10
sVdCxPgWSRL7Ds4WVLaDPCHAu
p676
I93
sVXgIhw-aWaq_Fx3ZVQGjnuAu
p677
I65
sVPZ9FB1czAYXuxLH7eegBvQu
p678
I1
sVwZ2AaoY2EJNKH4aMdnauhgu
p679
I126
sVgfoErsyOWfR_rx6v6Xwy4wu
p680
I18
sVYK-g0g4HbI6uVegt2ac8xAu
p681
I2
sVCgfIRB7t_7a8l_MlrUuX6Au
p682
I10
sVG4O27ezNFD2dD-bymdzZ3gu
p683
I1
sVMxYxLn-Wr1_EYyfSDkq5Ygu
p684
I7
sVqa05pUVNapADHZXpHMPMeAu
p685
I0
sVLS4pZdJnAx71TTJao6lNMQu
p686
I21
sVAr7DM2UX6e7LPsNfZlhJfAu
p687
I21
sVEOpcJ25dLCt8YGJ95ENzSAu
p688
I77
sVe-GOQDdx_pPSi_dHJ87oKQu
p689
I18
sV5DJGsF4L5UFY5XOBOQCARwu
p690
I16
sV3VgHutPPmF3TbWwIzlSNCAu
p691
I18
sVQMlaWJt4zVVWzv_KQ2scewu
p692
I10
sVlvsFlvp02AdMjyGRXv_dQwu
p693
I0
sVHyhmpb3UnbjtSEXvgviCowu
p694
I37
sVNMNiUVcUFLPWjQme5Fo6Dgu
p695
I0
sVxdl61MWMguYRSunH8CniQwu
p696
I7
sVsnRwZlK-VSsKAqUNpomCMQu
p697
I10
sVjSfnKukwTr4tfi5DoxW_GQu
p698
I21
sV_gZjcAu7mQEzyZsYeqfIMAu
p699
I2
sVaYDFqKsgNLzBi8PIhthmDwu
p700
I18
sVCs30FCG38uKQdVSx2eGPLgu
p701
I10
sVpkHPmnwGoOp6O6g--A7Zywu
p702
I131
sVR69oePjuaeq9jwlI7cqCPQu
p703
I7
sVnhkorBjYFl0sQ4R2dK2Magu
p704
I10
sVzcSzK5KQmnsyg0umeezTYgu
p705
I36
sVlz6V_bpLpPI1-gxUZJU9Lgu
p706
I76
sVgWOTPa-AHzl87htI816cqQu
p707
I39
sVd42jE3ze2wj_EdECiSAsbQu
p708
I21
sVmeBgdnN_Jw9MOwz3ZzqQEAu
p709
I41
sVizOUjRwXReNSYtIl_AUR9wu
p710
I18
sVZFlYv9VJbVYe6F3iSELXOgu
p711
I10
sVh4ksd-CZ-TOePt0DTgMggwu
p712
I19
sVeZQ2b5dJDlIji9AtfdOE0gu
p713
I39
sVGh1EXuS42DY3rV_MzFpJpgu
p714
I36
sVYVK9az5yUFbpQchy0DYUeAu
p715
I1
sVvBvTK-Fqfhl_DACCNaNOWAu
p716
I30
sVpUtCk4LAZpS4vbM8RyJcgAu
p717
I53
sVTwSpo42Ww9NttesQyiwjZQu
p718
I22
sV4xaC4c660LOb2qdVeSZfqgu
p719
I21
sVlOLIotP_qj8CxEOzvRwdDQu
p720
I10
sV077H-VKas8myY_L4rFuGTwu
p721
I10
sVsR7pGk5Rs4Qs9laIKJR2Twu
p722
I7
sV5eOjREaDIXXiOOdjuFSEhwu
p723
I10
sVH5Awp19K54wIct2Oyp170wu
p724
I10
sVdKMzuhnwGh3hGxP0QH7m6Qu
p725
I10
sVqZrArI2ohkYkQlELl13BKQu
p726
I132
sVUk0KkiRiSKIFD7SVD2LR7Au
p727
I1
sV6Q_NHOoun3f0t8xmDv1mogu
p728
I53
sV09rm-cYytHT4A4dqLfudVgu
p729
I35
sV2XUzWESdjzJ0fsJ0GB_FJwu
p730
I0
sVAo97-cqChIIyOwbAylVSzQu
p731
I30
sVZOfpCtE7a6KK8Dj5Bq_4Xwu
p732
I22
sVzkSoe67qmZ7SQDcolQkOTAu
p733
I16
sV709mdW0FIHy4BY-ymBPKNQu
p734
I19
sVybKb2vx-ZfnqjDi5tt3hAAu
p735
I19
sVclwdy_ucDl0xEQq8ImnF3gu
p736
I39
sVy96CV_ML3MGld3asJxzuswu
p737
I133
sV45CWmsjWWqsK0tVxS3y6Vwu
p738
I18
sVsc6wS6YOFIgtN2XuJI8_WQu
p739
I21
sVTfOfuXzdRIO-WVe8sYsO0Au
p740
I2
sVvhxFLqRok6r-D_aQz0s-JQu
p741
I7
sVz3Xplcl7rsnRlKjJtNchbwu
p742
I18
sVRbo3iLTQWHP4xEcYnEU9pgu
p743
I22
sV7zJeiY6YGosO7jakhlK91Au
p744
I16
sVRisAYFcuCkKKLXOXDkQxQQu
p745
I0
sVA0r6dCcT1UZJcEkdYs4H_Qu
p746
I1
sVF1_EKp5Qc5u-m1o6NItJPwu
p747
I21
sVOHYE-8Ne71pYtAo-hBg8AAu
p748
I38
sV11WMiRoB2sQxo61aJdSg6Qu
p749
I164
sVQYgcusG-G0bwUOt0b5rT6wu
p750
I10
sVqxnFi49a-i0O_t_RROWYdgu
p751
I18
sVmYInmPlOoa_r11yqILK9PQu
p752
I16
sVx4eIi_YiwKj1pzcspeLt-Qu
p753
I18
sVY31fbbttanfrS5oSMvSqkwu
p754
I1
sV4xw2k2iAEGumGPYlvGlp5Qu
p755
I18
sVWquqU5s77m7O3-DpkZErYgu
p756
I18
sVV0U-Qnr2L9gPjzj2PHHLYgu
p757
I53
sV0g6TyhGJXvLQNr7d7LsDnwu
p758
I1
sVGY9a8IKIlF4rQWQrBY8yzgu
p759
I14
sVYIOa2FsUBiOltTS7duakXwu
p760
I76
sVdk2hdhgUuLIhTwkHvzMkAQu
p761
I111
sVrm5gSkAcJ0xvv7MZbUjKgQu
p762
I21
sV8DEtfP9Fmp5X1DG6iTtXnQu
p763
I34
sV-bBWxXTOqxbxS0BCIXdI0Qu
p764
I47
sVYrbcT9CB_kW3RQutizG4Uwu
p765
I18
sVWRVEzidVMvjdrwcGyJnsQwu
p766
I0
sVq06LpedinooF2r2GqiQOrAu
p767
I59
sVNWh7AAPcOmAKSFOfukEsSwu
p768
I36
sVbmXuGmfu9LahwRMLjs5OXAu
p769
I2
sV_0wsW5uexL4r5Pe2HtmKSwu
p770
I2
sV7pCE0FpuFWtC8o9oDBr-JQu
p771
I135
sVnDOgPtW78OwpDLGVfVcP4Qu
p772
I36
sVAQxlX8bOQiSDwvlrHThnMgu
p773
I18
sVFo16fiQu2ueM2v_FO819Nwu
p774
I56
sVXoAyhKIQsCDwwDFzC900Fgu
p775
I137
sVXE-LQ3vryarypXpt_lgX1wu
p776
I0
sVpk4y8PJdccJysYBpBA-gcgu
p777
I1
sVTWjDnKexHSp0U3UQ3W01Kwu
p778
I0
sVEzLd3QZNpRaqiuHvJoySWwu
p779
I19
sVAk2jlINPRk9dWWazWUW2hAu
p780
I138
sVyhGfcKunPjcy-v-1ppr6oQu
p781
I18
sVuMHGvNLvC1WL4OVOi5hCDQu
p782
I39
sVVaLglvhXegtW1OMF6_Xfagu
p783
I139
sV6UJ56Kx0JtwWWGseQmknmgu
p784
I74
sVvUn91MER1jV-jT4crd3pOgu
p785
I53
sVzRnoNCqk0DG3iOQxtpVXugu
p786
I34
sVb55NYJJavY4rXXx8V3HaFQu
p787
I53
sVzLDgSR1q44fyLRi3Ea0Oqwu
p788
I39
sV-tjest9KLtzl_7iselznuwu
p789
I6
sV1_wDnEQZcagE4_kaqBNdIQu
p790
I39
sVA1yGtQzSfctsJJE1lyPbDQu
p791
I21
sVTJYLegdD8r_p5HOM6OgX5Qu
p792
I0
sV5Ka8MMYEoZfsU-jZzUt00Qu
p793
I18
sVKrIBoRBtS2MegCZZ2bkbDgu
p794
I140
sVZcjSjT_7mQOx2LOhYq01bwu
p795
I18
sVxQyx6TU1r8lVeCspzYdrAQu
p796
I18
sVE679YrWlyTpvkOBDhAssIgu
p797
I18
sVYbHL_lmvARxf0rz0WlVQPQu
p798
I39
sVhuTDGf8mt5cfKkIcUuSSdwu
p799
I7
sVjJlgHIU9ltclRKnhswpCvgu
p800
I37
sVmzFsC1Db12yV7JNoS9oengu
p801
I10
sVV7DpQeuPmDfX4EY8V8y34Qu
p802
I10
sVngUqhGZTsBEp2JTkqc4cNAu
p803
I7
sVpB6-p_DMF0vLzLkHnO9MeQu
p804
I56
sVrpEy5cyw5-MLuoajZdXRkAu
p805
I38
sV4vSGcZyNfIuKYUP6z9Cbygu
p806
I1
sVaz-3yponLJlIzLwDZQlWDQu
p807
I98
sV77s2qg6JOqXy69stUku6ewu
p808
I21
sV2HBaogoNJB4RX3cozqBHUwu
p809
I35
sVnGYaT5sAuqKkd48dqX_2Kwu
p810
I7
sV-2VqtJTmSoGFQWFIuJVZzgu
p811
I141
sVLpASrwGb-Ux5u_h84Hrz0wu
p812
I28
sVLNqyduiKb8XIV2lKqEETOAu
p813
I0
sVctv3fA3hu67sW5xcK5EJMwu
p814
I37
sVw52yAz_L3CTPsEzyUsDmDQu
p815
I142
sVXQQUBUlwe7f7MAED1e5Tdwu
p816
I56
sV6YUWA-5-7YM-i_NHWVF1PQu
p817
I22
sVN-0qJ-03xPg2t5lYu0z6BQu
p818
I41
sVdV_dYmUZzgzc4CjvPUchowu
p819
I10
sVJjweKRcu8DeYTah_KHsT2gu
p820
I18
sVaqmtZa9o9K4casagyyfpyAu
p821
I18
sVzLZZpwBNB8hWson5dKXEtgu
p822
I2
sV7lRSrmmr6J7i265NyoeqfQu
p823
I143
sVdsv5iGdK0UILcS7d_7DgYAu
p824
I18
sVthlVIc8s6ZCP37UGMf3yDAu
p825
I0
sVz_uEDOSWgHVsnT3_r8allgu
p826
I30
sVVrvQgZbTZx6M7MTmOlKzdAu
p827
I7
sVJ2L8E6dYS66cKkV6SHujuAu
p828
I0
sVZqMS4ElQg-k1tQBC06h7lQu
p829
I22
sVQ1pmHmYIOpaQhdAXceFXkgu
p830
I19
sVB7Fcf0TUgQXJCrLTBQKG_Qu
p831
I10
sVOyp1qPyKoeP_YxuZV0DpBgu
p832
I2
sVjU5Q0THWMPv4R24VmAXRVgu
p833
I34
sV-j235MyR3UtGFN6UOHRPiQu
p834
I144
sV09ZFWm0feqpxfH8INjSsngu
p835
I18
sVWsA0NtJVRIqlmBXsYAhgWAu
p836
I35
sVQDYycbzKLF0Sd6jgf0wDRQu
p837
I18
sVyy9fTfze8azIJsvWKvHefQu
p838
I145
sVjQ4U24uOw_Ya4aVw_VWy8gu
p839
I146
sVyKnlbNCAXcZaVYh1iOowDwu
p840
I147
sVNWEKM2JBpPCtvGtIsRAgMwu
p841
I7
sVAtnYGQjNY2cCSNWt_LY8nQu
p842
I7
sVKCQUgDM3vNuB5xn4ZXVo-Au
p843
I37
sVsnd45oedwXxF9tsHUX_6dgu
p844
I2
sVKXbybW2X8I0uJbKvJxnZIgu
p845
I18
sVqis3040X__uozHkiy8eT7gu
p846
I10
sVUXlI002lWvHNK4Q35W1EEQu
p847
I18
sVIIed4GFtBNbn7HWPy-4VLgu
p848
I148
sVbLU-JK1dAmSnztxWgFjWCwu
p849
I4
sVclTYUJCL-rHnVIS2WePRwAu
p850
I38
sVMn9YYbeY_ydJ7NABALyYIQu
p851
I2
sVQGzRZoWOM1PN6oIYFDnfgAu
p852
I10
sVWFs7wNFMnCMu9KepJIIVuQu
p853
I35
sV7VMMIJfwyKRbVEBwtnBVLgu
p854
I150
sViKbTz_0m4rEOB4yTL12VSQu
p855
I41
sVqWFYWalunBMpzJvw4WLvggu
p856
I16
sVcc-NjTz637u7EtFd83dn_wu
p857
I18
sVLXWAXIeYFIdgd2JVPF-9qAu
p858
I100
sV0AbPhr31EpMgsOCCroUb9wu
p859
I10
sVEa0QvMihI7UmWBrYUy0sYwu
p860
I18
sVwipbVXXkZeiYlCDX5ZbJigu
p861
I18
sVYoBu4TVcP5YHKOC35NPXQQu
p862
I37
sVeBwBjylS66qPcHs2_ajLagu
p863
I7
sVDJi5Pg8Yk7ht144Ad5xNAQu
p864
I103
sVbixj1Uu6cEam1J0BtFAK_Qu
p865
I4
sVo3IIbUN5_59PEpD_N8hhhwu
p866
I154
sVu_GXHKdCfmW9FgxxkW70xAu
p867
I18
sVqlBipIXCOkNERf0IOd-gGQu
p868
I18
sVgqxJR_3_NkNypzS678QPuQu
p869
I2
sV8q8NzDT6BCwmxyVtsNkKegu
p870
I0
sVIb8LPATQpj64s4e8YMBengu
p871
I4
sVKs5lPe_E14_-GheoA1A3UQu
p872
I151
sVS4jPvmZU45O5bDaCzSrfxwu
p873
I18
sVg70-T0pdyb0pfyHcwDAhWgu
p874
I90
sVMHTZuj8I_obO_5Y9C9Zv8gu
p875
I130
sVNQMpQlEzCUKBjAORe47IOQu
p876
I152
sVhaJXuFgFFNZYYdFF50EJ8wu
p877
I10
sVvchdTJklX4KnQDuDCWpxAwu
p878
I0
sV0NckJhx0qXykvvhsm-p7MAu
p879
I7
sVguDfVLWLSY4luklU799uKAu
p880
I18
sV4IxLt4QvCsJEdaNvH9QApwu
p881
I7
sVhduuRwJpz8gukqbFC26rcAu
p882
I0
sVAefRoI7j0OXlnMi8LtqaLgu
p883
I21
sVNxqcDEUm4FNDSxMYXlV6gAu
p884
I10
sV5RA1yMlY9ZpK3DXsW3nEMwu
p885
I18
sVO3F9oWq1WAVdw7v6RMTBAAu
p886
I18
sV-6zNUBeN_ANP-ufk2c4lwQu
p887
I25
sVO-Offow2UVaab04Wwv9g-wu
p888
I18
sVRxfFQxUtSIGYwTKU_rvAegu
p889
I7
sVtQ5wiJ9TGUbmIqnO4-njWgu
p890
I12
sV2FiNCj5rM3nF0qgaWf86Ggu
p891
I87
sVyG-zUhicaKm-53uoAq4Z3Au
p892
I2
sVj1kMhWMLZ7Ox5NU7iSbFjwu
p893
I38
sVtwmCrdNA6futrpytkPOZswu
p894
I0
sV9qLwPqr46CQOwPdDf24YtAu
p895
I0
sV1VcKKccWPLsNOhyYGMkWuAu
p896
I6
sVgvLzuWRhEyFcfF-RymhhFgu
p897
I38
sVva02uX_MvN2suVKIX_pNeAu
p898
I36
sVkHUdOyfeb2Z5dOVTcZ7PBgu
p899
I41
sVDcfmUIBBfClOte8dTekVbAu
p900
I10
sVJiuZExhB7nkio1OwgEbJjQu
p901
I19
sVcRyNICH0mhjxagvSyVr60Qu
p902
I7
sVRbRgf2_N18vAlWdwnGsDKQu
p903
I10
sVXYXA68TWwyHle2Y43zkD1gu
p904
I0
sVf9mxVab9bA8rcRGTnXAYjAu
p905
I10
sV345n2V8kw6BGptZI-fJm0gu
p906
I18
sVcrHxuCiLGeD_cJkDgeqzYAu
p907
I154
sVdKx6EdEQZ3-ngWOTd0AFpAu
p908
I223
sVVmbTDmF6Ib-wWtRzyM1fpAu
p909
I7
sVpCxaM5a3eEkfRZme28H4Xgu
p910
I0
sVVk-hJ1i5ZagPM87Kv9FOnAu
p911
I10
sVbeb6q-rqtiUu1JzKOARh5Qu
p912
I18
sVxFvZ3QVl-daf6leGBY7GDgu
p913
I38
sVHa2nti0HJG4zwz25c4S6Xgu
p914
I155
sVzqnAdayPsak5dbLF2gEvNwu
p915
I7
sVRN4TRCMHpUAW_Nq2dSyuIQu
p916
I156
sVPFHNFqKOFmy4bW_PAedOzgu
p917
I18
sVzSQps4R-_w8YkjDtgIsfiwu
p918
I0
sVkPCAg_NNSI5myqZOTKtkbQu
p919
I12
sVLvtD0njzvPSLcYHYd5-6Lwu
p920
I16
sVF9HbpJhKDPRz8qGLqPX-8Qu
p921
I36
sVDnwHp_A92KvllfaUIdFrawu
p922
I30
sVw_hcSjqLeSZQL9Rx1UP-Twu
p923
I158
sVFec3jKhFWNJDvI7oDiLakwu
p924
I21
sVxlhOYJz88hseqBnygHVz6gu
p925
I159
sVM6Wi9pKDx-W6rGgmf9GVMwu
p926
I7
sVe9HWnHUYlt9758oileaISwu
p927
I56
sV4CRwqGJTsi9alR8cnrolgAu
p928
I46
sVYIiQx-XtRVKWVQ4LCaEuLAu
p929
I130
sVkvL7bId7FbaMi19TFl3h9wu
p930
I7
sVWflEF3597OItD39ygq9C8Au
p931
I1
sVg-rWJxGx1EKqDORpkZXjJwu
p932
I59
sVz7PkDGuW38Evhw3uVEfT0wu
p933
I160
sVcfOL87aFWBkzPNeLYhhGoQu
p934
I18
sVRtep3VNYoTnU64w3n3iDgwu
p935
I127
sVoy_0JzDPYGXBZ2YhDhxK9wu
p936
I18
sVwk3JwAEeMuipzJBDTBivGgu
p937
I18
sVbK6v8n3zyycr7Eo0-PHJlgu
p938
I18
sVhSu6RtLWWkZfYeG8Zf3i6wu
p939
I10
sVcw-G7BuGF7nnqfJc7AV6QAu
p940
I137
sVturPLVMfH1YH-2kMtM9LLwu
p941
I21
sVkU7iQDW70gcCVBX9uQVFHAu
p942
I30
sVPB5f_4Ojjv6Nf-iGg6JN3Qu
p943
I9
sVUBIeuiLY9PobybSgo0qhWwu
p944
I16
sVzs6wQGh1r726ZzaNKRa-bwu
p945
I261
sVqgI2cU2DaNHzv_qwwDoqyQu
p946
I0
sVjfXT_8J_EQnJVa4sJ3z6hgu
p947
I21
sV4oSD1NsH8ei3_rmdINCIdAu
p948
I10
sVgyff5D1aNOqtGDB-XOz0UQu
p949
I161
sVWj0r9VOpoIyRpaa6y5XGmAu
p950
I2
sVkom_byw9fPdVzw7Mw_C4HQu
p951
I10
sVGwP7klR69owmP-y1XCuSsgu
p952
I18
sVGG30x5Q2nGP_X2qMAgcwFQu
p953
I59
sVZqLf-FPtyNpnkYoHOH490gu
p954
I151
sVqcofqWgRQtXRtoDlcBp3IAu
p955
I162
sVg84VjttN28PWiv_WtdhnSQu
p956
I7
sV4Q3pqQ-WR7kSBJyhQvRipwu
p957
I28
sVuZbTb-u-GVjTa2gtQfry5gu
p958
I7
sVt5VlRz0BRbaZMzODp-56pQu
p959
I4
sV4ti1WS6vj71fK2PUWMc7iQu
p960
I2
sVCEkNGnUQWGhQN60XD4E4Iwu
p961
I19
sVmZoajxG_bTa7StDSxCFp4Au
p962
I18
sV9cLBI7hhgScn3lHjY4nAaQu
p963
I0
sVQSVndCBjqjbJNM5YZC79zQu
p964
I38
sVEkjShZfahzBHvkCfphlgkgu
p965
I18
sVfySRKhGmZtVBr6SsxWCHaQu
p966
I163
sVZ88vOiGEJGtkQnGKFfoUSgu
p967
I30
sVhNoxBirlv11CbXwRW2KxMwu
p968
I18
sVPNS9z4aFDbfhpIsHCfNvNgu
p969
I7
sVVURvHke7yvGL673wgcp9nAu
p970
I35
sVKjGKNM9zEVIhiNEIS_RsHwu
p971
I164
sVSClabXBK2K2aJJ3rbdwzTAu
p972
I19
sVih8pG-QxzbtwTWAL9NzP8gu
p973
I10
sVnPjcsnRyX19tJbR3igncxgu
p974
I2
sVOvac_Bws19DOy2_ai3WzeAu
p975
I0
sVHeKxpZpPd_WweAuZSBZ_qgu
p976
I28
sVUHOFZkgIvb8sn3RSPMXMSQu
p977
I38
sVuq1y9VRH9vOy91x8f4TQSgu
p978
I0
sVq8SX2ENAlZrcJ8VdKw6E-gu
p979
I39
sVpV7C6w6rQLYl7BS9-J8cUAu
p980
I18
sVZkn45PKSC3Lj-o_ZnK35ywu
p981
I30
sVt4A1R0UrJWdd1up0jyEg-Qu
p982
I38
sV0O0WByGmSVbF7iNs4uxi0wu
p983
I6
sVTKUWlu6fruJ_jEUEXY6n5gu
p984
I18
sVbTTbF6aRwsQ0WIX_VE3dawu
p985
I34
sVPSadYWspmOQTgDs5FMOBfQu
p986
I2
sV1bV0I0j-YzDcfiXK2M-U8Au
p987
I10
sVeJGh4UF0zHIPPLZG1NkpgAu
p988
I12
sVhKNGmozNm5J7ssNyi1pcNQu
p989
I12
sVfhV21-QB6n402-J9vR-7cQu
p990
I12
sVhebXGQk5ggZSwTlUoEcTWQu
p991
I18
sV_Ico-McnANpys4AMScbkbQu
p992
I18
sVxZbN7LQlbEcdh37ExKmn8Qu
p993
I16
sVb60JsTGYbVqUGYbI81aOswu
p994
I7
sVMeDzKLP4llq_oH4mCNKGAgu
p995
I39
sVitWDC1MoquLplv0uIn36xQu
p996
I18
sV9B_VU97UoYgR0WLbU8dikAu
p997
I10
sVD4-0xGve18qMPnWQgMTbyQu
p998
I39
sVBjwXX-sChcjx2E55B_7rXgu
p999
I7
sVBAchYUwn22JerwF40iTEIQu
p1000
I19
sVLL4cvz4wDhw9i0BIXEGd5wu
p1001
I18
sVLMqKXdbwYdCqCCF64QbVkAu
p1002
I0
sV82vsbM8ggZV4BVrtLB9s3Au
p1003
I16
sV3esnG2RbwL5407YH5nAyZQu
p1004
I165
sV3p4eje1iwECESew0kg_N4Au
p1005
I22
sV6Uo7S088Ey0gsbODwCRo6Au
p1006
I0
sVx7TmGG0588VZKhHi_0-zewu
p1007
I39
sVmqueHx5CFC9IsZxLQb3H9gu
p1008
I1
sVDU0F18NBXFZ-hsPOmGhzQAu
p1009
I166
sVgSBvJ5FqFeSKRJaPiamttwu
p1010
I1
sV9Z5ew1LibX4RekMA0aoLpAu
p1011
I56
sVBlSlcDEEeBg5KGqBkE-Lngu
p1012
I2
sVudzY22a6foBOcsU7_7nIPAu
p1013
I0
sV-US_SpFlEAsu3ZRWY8Bsvwu
p1014
I51
sVRZZX5_JiCzxX1ntD5oa7xAu
p1015
I35
sV_kOKwnIguM9eOUrDg76AIgu
p1016
I160
sVaBps9nTCyYhXaubGmfOgpAu
p1017
I167
sVR54oNI24sya6u8BWzU-Yrwu
p1018
I39
sV04IL-BzBN8WdOQEtYVoZ4Qu
p1019
I37
sVLE6Yajmx2Db20gA99iu-IQu
p1020
I218
sVnrOCJCQUgXwdUIwg8QHirwu
p1021
I2
sVQrOSr8bzAjpIgyNftDLUBgu
p1022
I6
sVHmhmMMaKv3c5qUfpDgeQxgu
p1023
I56
sVOuus3lC3Xk3YRGx4ptd_4Au
p1024
I35
sVhWPOj78yi6CQub26elkHHQu
p1025
I174
sVb_4No81XPBhkT6K1H18pIAu
p1026
I39
sVI4MxmBPTll9C2s0hpC6Uagu
p1027
I168
sV0cUeP41LWMpjI6b6Z6X4yQu
p1028
I10
sVih_cWVP7G82Iha3rMAEkNQu
p1029
I0
sVg-NDDtPiSC2ZX7GhtFLuZgu
p1030
I30
sVzjM_3HCFhicnxfccPf6bUAu
p1031
I37
sVaCktH-ZuS2KwaScos8xNSAu
p1032
I89
sV6GJM8bWV3m2cOYPjDjohJAu
p1033
I0
sVxcSnoGPcKIjsPDwwaHedPAu
p1034
I21
sVUufvv9CBpJmPRXDQTSBKYgu
p1035
I41
sVIISK46iyEcjKa8vuywCD7Qu
p1036
I0
sVyY1XXk5-_B7gS5JjVeYyowu
p1037
I56
sVpNIMVREoucMm1mHi9H3Etgu
p1038
I0
sV3eit3w0zDbb-z57c9P60vgu
p1039
I7
sV8Mla-Bc6chLmBJa1fhX70Qu
p1040
I76
sV_4umSy_VSD8-a5zy-Ebhlwu
p1041
I19
sVM_C8-rexcexmn2zxwMmp-Qu
p1042
I36
sVFH5hgMmaz3CTxXzsRga4IAu
p1043
I18
sVjxZcNClck7IPF0_4DYcqdwu
p1044
I0
sVS0pUSu8UmUxPaYR03KqX0gu
p1045
I18
sV7KS3KW9TdHiKi4aW53e36gu
p1046
I35
sVpGLOZEOcFl05TE2gvBkLbgu
p1047
I1
sV1gKJ6A2c5r8Ni6g6IhESpwu
p1048
I1
sVV6rhoTCw7S6H8eHwv2M6Vgu
p1049
I7
sV5b27MGCiV88yLvnI9wNQrwu
p1050
I0
sV8HwEoEq3YZDT_w3kcxiDewu
p1051
I18
sVdw6WrHdihS1EE8XsC9_5AQu
p1052
I10
sVEGlqOFCbnrAEIvd86BS2_Au
p1053
I36
sViM7XMitGsO5zZyYzR8YkRAu
p1054
I56
sVGN20gCrMHjXH7zdZ3AaAcAu
p1055
I18
sV2SAfpKiBCl4TQE0D3UhyTQu
p1056
I2
sVfu3Y_E-v_EalSsAbTdrghgu
p1057
I38
sV4My3PnGfcKM1mVr9jIVCFQu
p1058
I19
sV9Y_dFb_4_43plD8B7IHOOwu
p1059
I127
sVJtqCTs5hmVRIzQTm_jvhiQu
p1060
I0
sVWXi3Ulga_migZyvAUZdNCQu
p1061
I2
sVWy7f9DOuBEOenhnA7KIKoQu
p1062
I7
sVOFpaGtyyZ-9vmR-iVM_qbgu
p1063
I10
sVK6JcyAcWcQFYEf-536o3kwu
p1064
I115
sV4jHu7B5EFewkC3Tl7KP6swu
p1065
I16
sVvv_jZXjljnk981LjL8NE_wu
p1066
I7
sVPrsk7SiPZNfgcPyygOdGHgu
p1067
I2
sVhFhWUgq1QqKQ0FoMNDxVLwu
p1068
I16
sVhnzx7Q7IWq5EDVe0yjKK8wu
p1069
I18
sVfwEPqYiyZCaB7QKY6a7h5gu
p1070
I170
sVLhSKiNsXSItau9tgmRfzywu
p1071
I18
sVSqE440A80WYwajn_qTM9SAu
p1072
I18
sVDPo1uZzvRBUnMJnA6XMcLwu
p1073
I0
sVt2vt5C1x1oudBKwvsvUDQAu
p1074
I10
sVRWtDRHpLnPBDjDVdKWh6uQu
p1075
I18
sV9VBrPQxkQTsQBAcjYM8FIAu
p1076
I171
sVefsFj9GrwYztcfXOx3XWJAu
p1077
I18
sVYJADeZk0LqI-NvFgs6w64Qu
p1078
I172
sVaDr2o1V-2RrPwPctWGL7hQu
p1079
I0
sVbr7jwXG7TaWC1-vrZxResgu
p1080
I0
sV7jOAowWbwD-ER1hJE_GAeQu
p1081
I21
sV1diI7PX0AxbbtiUB7nPbuQu
p1082
I7
sV4saZLjsp-_KS4b6yc76zmAu
p1083
I137
sVzaMpyqjK3jFaYl9Sv-Q6ygu
p1084
I35
sVRG3fSnsUFnagOcJgyOzMEQu
p1085
I21
sVXfUbS8krsXec3nKYA63jrQu
p1086
I56
sVKdcz7G0l1Fr5SxW3AzGNZAu
p1087
I185
sVC5_Fe8CxYWLlxm44U1yrsQu
p1088
I18
sVwpzKJORxvWVfXL7AdKjhvgu
p1089
I4
sVYUtYCvkTE8hvDnxrHZy4Wgu
p1090
I0
sVpI3X549nb5ASgTQX5D--1gu
p1091
I18
sVSXjlK7mtXuQiOpudJG3SMwu
p1092
I1
sVhF9UE5lTWdWo_naPEzdm7Au
p1093
I39
sV-BVv1TDLLphHzgKw-eAJJQu
p1094
I0
sVvC-9ROCPBhWuXtMcBNeDiQu
p1095
I20
sVwHg1YkCzdZq9WBJOTRgxHQu
p1096
I7
sVQsWWVw4b2FBcg038q1w6oAu
p1097
I39
sVgdLc6dq1NpjHj47WBUNZ_Au
p1098
I36
sVHGCWB7t-fCCYYVVjQXEk3Au
p1099
I19
sVfev0iI-XDrteD4SYRKjiUwu
p1100
I7
sVm59OpbCyRwXSvERXeevWqgu
p1101
I28
sVSKkvXrkPKEANoxNiBzfCtgu
p1102
I0
sV6hvcowqr8NYug9u-Bzw8Jgu
p1103
I18
sVVdi-fbSA36s6jffY7iDbXAu
p1104
I34
sVr8xfTpifZ7gP5Cd5CSQaIQu
p1105
I18
sVlve7u-IYrhUsZ56iwrGubwu
p1106
I19
sVkOyW4HTOFNX1NqIA-eyKyAu
p1107
I19
sVCZ2c7VGCAFYuJdhwsqRChQu
p1108
I53
sV1vkT3MfpsTm0fNzSx1hIggu
p1109
I9
sVgPcDJI4wU89RMQWTeIs7Hwu
p1110
I30
sVE5QyEU6FCQwnTys0S73zNwu
p1111
I7
sVOZ6le0aoyMbYKgQ_w4wtIQu
p1112
I201
sV1pVmXwOLW50vAF36ym-PCgu
p1113
I34
sV3XyuBpNbvrHukaEJyWBAswu
p1114
I38
sVYB6u201aFQxu92j4-BnZjgu
p1115
I51
sVEaPbAu2q7Om6cXF9bqUG5Qu
p1116
I137
sVLnTrX9BR240MXg3XJ0wsDwu
p1117
I19
sVSMAiS6Am92JmV8EvxQtPvgu
p1118
I10
sVBJWwFU-1tgw7jQEOd-VjpQu
p1119
I0
sVjXGaZVodhyHZ_5r7GzxrUgu
p1120
I4
sVTvtjkm4OZM7b85nanzZDuwu
p1121
I34
sVXzy0-Ju1stFNrgqs0IrGiQu
p1122
I43
sVoSt7SgfAeEpLLAIE5dnUeAu
p1123
I1
sVhNlHSw7g_ujCaVO3zBOr4gu
p1124
I39
sVAc3Kbc7w1G6N5SzTrZZWlwu
p1125
I37
sVvtESplowvwkxPa56wsxo4Qu
p1126
I35
sVOxPJqrIpixmPlxyEyOwKzgu
p1127
I18
sVNNM2YvtmEJIAQ26PsyweMQu
p1128
I0
sVrszuPsjf9vOpcqL_t2-L2gu
p1129
I174
sVHdjQphmUgZj0Ag5EkhnDGAu
p1130
I41
sVMD-LJxKiA-CfH_M_dubZSgu
p1131
I10
sVTbe7FZsU_XY3a6Ya6LAG7Au
p1132
I2
sVtXhlRAnR3_GoWvewfQni4Qu
p1133
I7
sVhQ1rEj-8VY9vFYYNsjXoxQu
p1134
I30
sV1kED3-g-gqnc4JgHe89Xqwu
p1135
I7
sV7EYE-xpV5Ldeqt9ZZZAomwu
p1136
I16
sVVA5zvXwaaj81_tjiQCH2mgu
p1137
I16
sVjDCONTPR6nyc3J7iimwzkQu
p1138
I176
sVRvyTTpBLqd8yHomBTW_Kpgu
p1139
I51
sVibfK8z_emnNa57YpLuuPWQu
p1140
I34
sVl_6XDatGLHfkGxl8BjI2Agu
p1141
I6
sVx-0Q8z-BIwHyN-KDjZbiSgu
p1142
I177
sVVMKhjcUyFCI2vgGTooF7-Qu
p1143
I9
sVGj_398oemu73V9DEFSYZjgu
p1144
I18
sV0U0DxqjCdmJqqkj5pGuFMQu
p1145
I34
sVkW5KAUmP3nCUMW9wNPKikwu
p1146
I178
sVGNVnN2A0FleRHO2oGFidvAu
p1147
I9
sVZWiGSbjUtuE5bmX1s4z3KAu
p1148
I18
sVWj6yCZZ6IGy1Afw4LdC-jgu
p1149
I78
sVcbxUyCUMjkWAs1h4auYeAwu
p1150
I4
sVN1MjSC3c4KEd_jEcr1bNLQu
p1151
I18
sV0Q0n7MMyAGBSdFuU-kNjYAu
p1152
I12
sVNahS67lN8c81DmyccPfVkwu
p1153
I18
sVqRo9gHN5OiV1-peDuhCh-gu
p1154
I7
sV5LBowfIh19Z25enwHJFWNgu
p1155
I0
sVk8_yraxwHMVNb0AlOGXOMQu
p1156
I4
sVMWt24-6bfv_OHLKhwMQ0Twu
p1157
I7
sVzGd36LIX9IM5JVC7kmQYGwu
p1158
I2
sVC8ZTiwa7qWoPSMIivTeSfwu
p1159
I7
sV4mILqmATFktvFYWqrpRAUgu
p1160
I10
sVa23OeUf_P_GkGcpw0R3qzQu
p1161
I37
sV5m55KNmkpgUk0PhzooJ98wu
p1162
I38
sVkAHUx9Z-vwaahW5cpoUg0wu
p1163
I179
sVK4UmjxSpiHZohl2MnkBuKwu
p1164
I18
sVZJfWHXCWdm01MoDzwXYwAgu
p1165
I9
sVKUg7vDsMivGg65szoEMW-gu
p1166
I4
sVYTw0hz4Y9z29xtd4axMcNQu
p1167
I18
sVsWtIduPNp6MtUPrGnDcb8Qu
p1168
I4
sVAncVDK7eNz6c0pxLxAl42wu
p1169
I180
sVLSGO3UGvXg91LQRc6a-oiQu
p1170
I30
sVKydTpdUtq6o-u3JLjZFrDQu
p1171
I2
sVUTnowfgFWMZxgnS44H5Q2Au
p1172
I0
sVhn_DclKLzdxABRGGAuqKggu
p1173
I7
sVA-yR4oTFKmDVnegSyVur1Qu
p1174
I2
sVZGfbxU-9wtRDTrfLRzfiMQu
p1175
I39
sV7aMUGpEAhstdk4ZuH7qOWAu
p1176
I133
sV_j4PdUTEw7N3NXQM628ZKAu
p1177
I19
sVGiROQFEsNS9-uRobLQHSkgu
p1178
I21
sVqh_q-YZzSfOt3iJAXaykrgu
p1179
I28
sVCxt0n_IohFGXncyomAEv0Qu
p1180
I38
sVbomxdD965gZr9j4iuUIqjwu
p1181
I181
sVX3IEw8JH0yurh3S0IXrSEAu
p1182
I47
sV4AC1ZlAlL8_kYVXX6Tq2yQu
p1183
I2
sVguT5ZW60rtlnsU15-DYoXwu
p1184
I12
sVV8tVl1XzighZmZ1fxMunzgu
p1185
I10
sV8Yg8el11sapGi13gM4NfTgu
p1186
I2
sVtYOUZeC6jUwZlfL2FSy_Lgu
p1187
I4
sVCuzADeE8rkYwiWrIxTsNGgu
p1188
I10
sVbm7EoKmXMa2xDFmkTAqr0Qu
p1189
I0
sVJ5nb9AT1LDiGN4_hY0Au8Qu
p1190
I182
sV7tA6O_H0uWtszsIbolpgswu
p1191
I0
sVfrm67YsEcoZRU1gIqQQj2Au
p1192
I18
sVsMgt2JAQ85nz59Woe0IAtwu
p1193
I18
sVP9x_Yx9E6wYGzqtUGfSIMAu
p1194
I183
sVhO7qiLvCzzzf9O_hlpw7fQu
p1195
I59
sVHslReRAnURM1qrOTT0kZ5wu
p1196
I22
sVrMmsDx0VB2onSrAj3qnI5Qu
p1197
I31
sVEQYhCVLmAQLGwYUYPPSaawu
p1198
I19
sV58yx7GY7Pbqzj5VFRzrs3gu
p1199
I21
sVedN7PqFHbQZ9EPcK8znrzgu
p1200
I10
sV7hLw3qNZPc8uQdLuTxg_hAu
p1201
I184
sVpWdtEqtIb9YD_rdogPG-DQu
p1202
I29
sVvPOkQ-4kwG-6K4RJi-Vzcgu
p1203
I30
sVky9pQ8AKufvZ63IxR41jGgu
p1204
I173
sVPDRWbCZa92irf8mK5X_Kigu
p1205
I0
sVzEiTVy41B5c4QEiEZck_bgu
p1206
I39
sVbgy1PPzEqklRtMq-9ssTkQu
p1207
I0
sVf4_0MTexPnmvuWwjTsR_mQu
p1208
I147
sVk5X_eMJCpEW1pZrVf0my6Qu
p1209
I0
sVcSAACR699NuLMqBPuKL8nwu
p1210
I186
sVMNRD0Lcxm7QXGVADUqIU6Au
p1211
I113
sVa39U74iPSF_MEsAZL4Ub0gu
p1212
I37
sVV-_LOngmd-Iy4x_1BYa8PQu
p1213
I187
sVtdYgep7-RzQAn7Pv9nP0Ogu
p1214
I39
sV-RGZxK5ZXk_zQ7KnaUOfugu
p1215
I36
sVjoEN2Mx6n2FNzsIrR0CpjQu
p1216
I188
sVFHJUj7EHB9nB2czVOzQX3Qu
p1217
I11
sVE3PCAkaftZ848ZbHoE5FzQu
p1218
I76
sVHZeFzs42f0iGaA-sP_hUnAu
p1219
I7
sVavTf2XsWIqFae6HQ2LVPaAu
p1220
I18
sV66PQJEHC0tCWGMI4V9KT-Qu
p1221
I83
sVRK84F1D5HddOfiIWbdWJFgu
p1222
I18
sVTEM6mqCC2GPNzCPzpcU54Au
p1223
I182
sVIMyvW4g_slfljTt2yKfEeQu
p1224
I1
sVPKmdgBdD3KU5-bkK7A-Etgu
p1225
I137
sVm3mJRsNXeQy1YDCmFBMoiAu
p1226
I19
sVjhTjnfxsSVBjT1Fwbzwpcwu
p1227
I0
sVWy6JfQaebNErtuk1mt5aEgu
p1228
I18
sVggEHaGGCiUVmE2N5iZy6DAu
p1229
I19
sVdym75Mq5WpaJgXXOzQn_2gu
p1230
I51
sVv5UXUW1bVN7Q2OWX-lOjhAu
p1231
I39
sVUx7a5tbceLU6anNycjwt_Qu
p1232
I37
sVQKPLkz_VC6GVwnC4B3_Y2wu
p1233
I34
sVpJUdG8KPNfZOLdVqiWIpAwu
p1234
I1
sVFKr5gdOPW7BAPjkND7XJ6Qu
p1235
I0
sV0oHzVeK6Sy_1dPW_7Dgevgu
p1236
I28
sVzNvGIj1LefuBnBwCuqAGjgu
p1237
I143
sVGYkxnJplDi9KjNvWhEfrmQu
p1238
I2
sVSykDLadsr6NwjBZoEtc8_Qu
p1239
I21
sVvsXP832M0kOxKpfduD7dWwu
p1240
I7
sVGU6rcPRADsnXvaMFShimhQu
p1241
I21
sVwIi2J1UGRB2G_3vu5eNK3gu
p1242
I18
sVMnDHJvePh4cWMrBgOp0_Igu
p1243
I40
sVHxdEw5lXvOckbUIwB-EZiAu
p1244
I39
sVvCvtdiwIR52fnByQH7ciZAu
p1245
I51
sVDpi50FrVtvy8Sh7TVbwetgu
p1246
I18
sVAoNL6jI2TfYob8V56Ld9kwu
p1247
I19
sVgv6GLZ3-bgSs44PtPJR1Bgu
p1248
I23
sVjt8jtEY1K6TD1FBzYa7HGwu
p1249
I18
sVjlXbohgL1d8Yg4uPY9KOvwu
p1250
I28
sVfQ65oVUPQ3RXhm6qtjUTSgu
p1251
I19
sVMxeHhDzPsO9P8swTby_faAu
p1252
I38
sVc1DnIzJfCPKL0AUyFwEZWQu
p1253
I10
sVpJ3kMwJQJsSZmewt_wzPPgu
p1254
I38
sVhKcubct_FUZPLRk-VFBDXwu
p1255
I172
sVJRXRlaus7k2Mz3erUKnwyQu
p1256
I16
sVatxzTS_SmQiaYpAPdf_mTAu
p1257
I18
sV_fbvlajq2-rkZpu_n2FeHAu
p1258
I6
sVeXFNV1o6x7oWRP6V_tf5BAu
p1259
I0
sV_p8mq-6elhmcLCt2i27xNQu
p1260
I18
sVO3Zn0N80C2eR3Vqk9olDmwu
p1261
I190
sVpR_-Zb8IG4JsjMfC3cRdtAu
p1262
I0
sVDf_GDATOdDbdS9Z0aEHK_wu
p1263
I7
sVEsi0LF6paDqj7W0LcDX4AAu
p1264
I2
sVq_EnzoEIHLqmsGIQMIuyjQu
p1265
I1
sV0EVJRYAg9G1ZkGhP30jtsQu
p1266
I0
sVT3OqI85mcQe8cBT0nEffswu
p1267
I179
sVs6NzP7eFYigahsyv-X9M-Qu
p1268
I126
sVfDyt7FyHlFaEpeb1iLEzWgu
p1269
I10
sVH4HyYjNt9Vcu-a4ZMugdeAu
p1270
I38
sVVOhm_qsa-Ga_otVJBnum_wu
p1271
I37
sVAJX3G9tGOvShz85EuDA_-Au
p1272
I15
sVqLLiQwha3qf6-_6Tp1-P1wu
p1273
I6
sVgjuGV0llM71Islcvt2OIHwu
p1274
I39
sVOD5nkH4uJDDTJQdmaltDAwu
p1275
I36
sVmXUGqzUsJcx___b0y72BZAu
p1276
I18
sVnuVNtgN6Y3YV0SQ2_7DWYgu
p1277
I30
sVmeADblwH1QBbvsG-YQRrZAu
p1278
I191
sViR1pShxMP5Aiwo1DZzGJlgu
p1279
I16
sV5YjnALvXmuHOTULfr919Mwu
p1280
I51
sV1g8Crb6WGQUsA2l2X3yVGAu
p1281
I7
sVPUGeqbOMcynGB_2fMmNE-Au
p1282
I30
sVrLtl8ZkDX5vH5nAx9C3q5Qu
p1283
I7
sV8CNEh7fSbLwDuAKhLjDPKQu
p1284
I192
sVMPNFtwa6OGZcMJoB6b90iQu
p1285
I35
sVROr4DQ-gxlfUKmiDC-qSEQu
p1286
I107
sVHY9qpAamqLXFoa7xMwNntgu
p1287
I7
sVaanQAeF8EDsbZ6l5YddEsQu
p1288
I34
sV3x1MykIUtUJjIUk-pji2WQu
p1289
I9
sVF2bm-RcEaxqIqriybDgpXQu
p1290
I28
sVrK9w3-3GJqnerxejMCbLLgu
p1291
I10
sV_aQe1Fbs61ZAj4IZ_hCvNAu
p1292
I10
sV6TnX7mzI-jfgK6teWqIS9Qu
p1293
I10
sVe6jqQ_YXlGiLPi1z2HO0Pgu
p1294
I18
sVHrMwMgstAwchQHVpj8ZmWgu
p1295
I0
sVP7_r-ZinJfr9hiotRRJ58wu
p1296
I18
sVJ5kWPjoN8zaF5d9JrW_82Au
p1297
I7
sVwkPg_QWNOSmKKmZY1gOgwAu
p1298
I18
sVNCUcdDi9HQNkpdZA_970bgu
p1299
I16
sVHpKLR1mrb634jCnTXQr3aAu
p1300
I0
sVZIF9MST0WFyxB5arAKD2NAu
p1301
I18
sVkpo20fBM7l-C5yX5gcAd5wu
p1302
I2
sVVh7HNMDLVVmnnBsIe7i7Qwu
p1303
I0
sVjvwnIG5wEjdOsqkYJgN29Au
p1304
I7
sVVG91DXastcaRO-ocJjkcPAu
p1305
I193
sVWwRYOQbjg4MCKJrgGUJWWgu
p1306
I194
sV5aIwvlUsOqUZexGEc-iVjAu
p1307
I10
sVWRsNHFBaDZDVW9Qt0Vn1WQu
p1308
I19
sVKP6Ccn6doEVM8WjtrXoRmgu
p1309
I56
sVAWsw5-Vf3QSpuHnKSztQmgu
p1310
I39
sV-UDZu8sGloFIAIeFBvqK_gu
p1311
I35
sV2QzrMw_uWZuhPFvqie0cmgu
p1312
I226
sV-VvewQc_midHAjz70lcA1Au
p1313
I39
sVE83jZ7j07Hx-RcRiTbA_kgu
p1314
I37
sV7RBSJeEQRCnlzaIIo8FVXgu
p1315
I195
sVgJrTS-8XuK11J2kdiKH5XAu
p1316
I18
sVY_ZITL9cYCKgBgDCwUQrowu
p1317
I9
sVA3PEy6o-lQ-kRX3PXJo3hQu
p1318
I38
sVYKI3W0kZpaYwaNjBviQN-Qu
p1319
I10
sVfE5ojHhyXuRxKUJIewD6YAu
p1320
I4
sVDJIwm4UCnM-SOxXbARjPsQu
p1321
I52
sVanaD7V8vo16qYKdBURuiKwu
p1322
I18
sVMfRSd53TgXPqfVzbccLoKgu
p1323
I4
sV8U6I0GuBasZa9rapy2H-8Au
p1324
I228
sV_F_Veo7apY0NbBhKWJ7DJgu
p1325
I197
sVgW-ukHucTfVCnFCKKxPJzwu
p1326
I7
sVWJhG3YGrc72Lncv0ACNbwQu
p1327
I56
sVvp1LUMkedWATnFeVFteASgu
p1328
I79
sVOHkMbVbIeEQEGuFQZ36qDAu
p1329
I0
sVoFO6-eq9JfYnsMUvbAZ5OAu
p1330
I39
sVtDGOpaWUKuxFh18mAVwIYwu
p1331
I78
sVijydPFR9dhpqNst3RQB_IAu
p1332
I112
sV1Nehsc8scsyjb7em_lihXwu
p1333
I2
sVGKzWSBv2Dpx3ziMFQ4S0gAu
p1334
I0
sVo28wP2ypjf84sABZHNypBAu
p1335
I0
sV-YLjmeAqLY7ba5kptuOGRQu
p1336
I10
sVdi9IJXTJmCa4mO3bZVINDwu
p1337
I18
sVttahUKmCKWm6FF_aLJus9Qu
p1338
I18
sVpB7Zrm_-6wwXhT4ERWdRewu
p1339
I59
sV7o8ftQox8Usmik734CwGcQu
p1340
I18
sV5iakVo0yGFDKwUtql58PqAu
p1341
I13
sV4CZW7wofHjv55ml185QPOQu
p1342
I10
sVbsYj9aqoefsjJmCIiM56-wu
p1343
I198
sVQIPn_akIS1TLx8kSuPjLxAu
p1344
I10
sVgqtak7Wz8azWHlAMkx6Acgu
p1345
I1
sV1nek1KPEbTgXATRzxTcQKAu
p1346
I157
sVZiSL-0G_x7fclCHAQjra4Au
p1347
I36
sVPdnYz0cdJaRZ-C4aMgRLzAu
p1348
I0
sVsyF-6VzPdjmCXbTye6N9Egu
p1349
I21
sVDMCGCo1D88u61SBx8jXAWgu
p1350
I39
sVUljIvJ5ACvFoHK7aKvjDZgu
p1351
I39
sVhNk9YQNC9vJpEs5swUlbeQu
p1352
I0
sVlNy8SwuAyq4O2oosW-uGUQu
p1353
I38
sVkuShIXalQPy0vqI_N7bz7Au
p1354
I7
sVLUGSw8o04ghJe_-4-X5fbAu
p1355
I0
sVYTrENuteaA0cc5JPkmAHlwu
p1356
I9
sVhjJPKQ1Ah91h3fVbc8GsOgu
p1357
I7
sV1QRNWR4w38bZC6jtZsMK-Qu
p1358
I16
sVTlrv1rxNnU1YY3PsLFvqZQu
p1359
I0
sVZP7ZkQYTIntGyeeHGkxM4Qu
p1360
I34
sVSCkg1fUjBVOze8wWlTGCogu
p1361
I28
sV6OWHDbEq23f24Vki_veHBAu
p1362
I200
sVJTFAjb21Y5sbOHLyO_tyrQu
p1363
I56
sVvFyoKM5nvm3kRpmoE6By8Qu
p1364
I56
sVMDVoSLBTqsGsC4jztAs4PQu
p1365
I151
sVfhYSRycAFqDzA1M0FuK--wu
p1366
I28
sVl2zoX2M4OBuAE_q2A5qW8Au
p1367
I144
sVTI88k_ezEWaj_XZSiuBNGAu
p1368
I10
sVVeV02NK_4RQm_f-qNxmyPgu
p1369
I7
sVcykCXyNrk3Xpo5ScViqA3wu
p1370
I18
sVc6sX9OeQS1OnLJsbZ-3T5Au
p1371
I35
sVLen-IXos5wCvA7nTsX32CAu
p1372
I0
sVU6Uwhvf-HpigDGmQN6UVrQu
p1373
I90
sVUO24bcICTQvRe-3FQwCStwu
p1374
I39
sVVaQ9THOT-ofI4F5FMghxnwu
p1375
I35
sVqhooXf7Uh8NP3mX6YG3Drwu
p1376
I35
sVioTLeBk0Kw7H95g-rtzXrQu
p1377
I0
sV0CY9WLYFbVJfOMV2-B88oAu
p1378
I37
sVsZp_7b83BDTWYeu5Qx0wFgu
p1379
I6
sVGSZebDbIf0h_2MFv8xBGrwu
p1380
I10
sVNqoaK7KuK20O8t5nLLgPLgu
p1381
I202
sVDZH5pRRxBBHRT5tF1wQ1_gu
p1382
I0
sVQ6H8EfK1mAfQ1nB6GSeMTgu
p1383
I9
sVAiZ8p7WtLjJjCImr1i1EDQu
p1384
I30
sVcosbiB3IZGD6-sRVbD7Thwu
p1385
I203
sV0dpNmJxKp4Ha-fzJ2R8cCwu
p1386
I19
sV_rg8SIAg4w2_CsVJNlm7Uwu
p1387
I30
sVHy9XpAJWE_RrikpF5aQH2gu
p1388
I0
sVdyhtO2sXx-7TMlTftVuvsgu
p1389
I155
sVM5aFV6a_fy5wQNowvWHV5Au
p1390
I21
sVM85wDqtAfQT3dYgra4H77Au
p1391
I16
sVHEag_QERXNbyGmNgA6no2Qu
p1392
I18
sVd8B0rpK3LRPKry8AXydEZgu
p1393
I56
sVDfEgmOAMlXa-WEVpSVJ2Ewu
p1394
I41
sVAslq99yqmuVZdFMxasei-Qu
p1395
I18
sVuO3pavwCb8ylw-aog3Mn6wu
p1396
I0
sVZM46AuSwgvN28tkykvYQLwu
p1397
I10
sV61HlVi4obZXwOJzCvZuqzwu
p1398
I22
sVnObbQ_Zu5vGV0Cv5dMe_1Au
p1399
I188
sV_uPqvlRzNNUTjpuBS8kGYQu
p1400
I163
sVQ8rumFOKFM-BcR4cS3Fb-Au
p1401
I36
sVBpixBbjot5Wl8brVj5hT-Qu
p1402
I2
sVmYqYG5yxc8VI56JCkoNj8wu
p1403
I204
sVX0GA9tYnJPl-w1GfT6Z6kwu
p1404
I9
sVbXco3thg3tUuG_S5Nas8JQu
p1405
I41
sV5gmnzvjYprzK21Q5awYF_Qu
p1406
I10
sV1F5G7Tdo14xzsGyISkHDvQu
p1407
I9
sVsljlQDKEhsHDt9Mx5B2b9Au
p1408
I82
sVfdfax5deZnM-pmeiyhIJVwu
p1409
I7
sVUrf1mXPMFvoJUoXVxszERAu
p1410
I7
sVvMwnJLV3yF07yJ06zdRgoQu
p1411
I18
sVwUCRCqCcRFAvX0e17_6odAu
p1412
I205
sVXCdwv4WmVRrmoljNADGubwu
p1413
I145
sVqMCT8OblN3finTvXcba-oAu
p1414
I37
sVxkTbpCc-YhU8-EXZDA7u0gu
p1415
I7
sVu-M4jMYKXsj-l1BYdyNpRQu
p1416
I7
sV_X1zedRYJt_pf7fosmForAu
p1417
I256
sVWmldRvl1nKxuKM6weiO6fQu
p1418
I10
sVLEKQ8zV9yxfPpkmRk-QK5gu
p1419
I39
sV7XHAkOT8qgxsxGptccwbRgu
p1420
I99
sVGveOUdXagY6tuZttk2SUewu
p1421
I10
sVrAC7fo1bPMEy-HjsHf9H-wu
p1422
I206
sVwz5bTn4OyandnytIe_hOpAu
p1423
I6
sVWn4cr3qd67lYL_aya4I2TAu
p1424
I0
sVkUt7V29RumQW8U53ONdbXwu
p1425
I203
sV-OMlS6yWkYjVldNhC31wYgu
p1426
I7
sVPV5Lv_xl3DDAcAchFJCbXQu
p1427
I18
sVF6QsMoJdvtohlbnST-fDyQu
p1428
I92
sVzNFIzjoEX3skz2zd7wE5Sgu
p1429
I136
sVUQLWaa3K8ajDq0J2zSltnwu
p1430
I64
sVF9P--h4g6gA-C_nO7OPUnQu
p1431
I36
sVYHsXC1pBglfXQNhVN_weFwu
p1432
I18
sVWHEpTU6yMSMp0zRssPbVxwu
p1433
I10
sVXQC-SZOp2oJ5AXqy1bXCUAu
p1434
I35
sVPllc3jWFmwvkPcPYHTQs-gu
p1435
I0
sVZmCfwDMuYkhpyr-hWKgiawu
p1436
I207
sVBq1WRSGLdj3OmM309sVhYgu
p1437
I0
sV2u7v4hKWKv5hzXAGNH-IgAu
p1438
I19
sVlrNkkOV6nVLZRzTQo7ZMGQu
p1439
I0
sVhjPDVLfQsghAHJv6jogDDAu
p1440
I30
sVQb5GheTWyZpz-Y3-4GZGCAu
p1441
I59
sVSaC2fZjZZfWV-8wYb6o6fwu
p1442
I37
sVo959bSCJ_NzD6skRIeFXnAu
p1443
I2
sVKEeUEjaYa8M5MvDYRcfTrwu
p1444
I156
sVNKVQ4o0hqOkquCgIctPq_Au
p1445
I208
sVLbgQK5B_5IkN77FgRJHhrgu
p1446
I2
sVwSWDShwN69X58ydFJkIeDQu
p1447
I22
sVyjUhXi-YP4a6G48sK5kEpwu
p1448
I43
sVRE_h-saaso1RXQNGKG-Rawu
p1449
I21
sVmfvezpz6ohS0NQk3DZdvqQu
p1450
I7
sVZ3Q15BhiUWfMPSa_dIbN9gu
p1451
I35
sVcH1lLTHReO6uDTif9bfOBAu
p1452
I71
sVLaEj3VpQh7bgpAZLzSRRrwu
p1453
I7
sV2dRFso4q51RFKhxntL9vFAu
p1454
I142
sVDrWLhrK8WMZf7Jb-Oqc7wwu
p1455
I7
sVeAWFKYEjqNgVsSAwMToxqgu
p1456
I2
sVJ9SyqyIsWyca5v3Z4GyrJgu
p1457
I12
sVHm8mxRyPSQqTPq0JVWNSpwu
p1458
I18
sVDi4HUwIcNi7s5Y-hnWcCqAu
p1459
I53
sV9dHHtgu5OhOjibf780dd_wu
p1460
I154
sVs2TTCqBt93zlnzns5Z0TBgu
p1461
I16
sV0LuN0DGTCkzpjAD3NyNN8wu
p1462
I7
sVOOxLwlNadygUwL_aG8KnSQu
p1463
I2
sV6fUnY7BVS_qBjkzDpMJKfwu
p1464
I55
sVOI1iNMzrKaFkX1ZSqGsFAAu
p1465
I0
sVAOSAYR_1rFVVGGY1ajEZ3gu
p1466
I7
sVzw7zabEyNpfdEwa9tT_ZYwu
p1467
I39
sVGfW3R5sQpRqZLw-V7TIbVgu
p1468
I209
sVvWZsmtNF2O5W_hcBRFK3lgu
p1469
I2
sV8--wTwef2ljdeieDnm3ubwu
p1470
I209
sVBLOwScmNMsW--7mbrQ-G6Qu
p1471
I30
sVo1HQEND6cg-4SK0Z1ASBMQu
p1472
I36
sVaQ4wSvsatTj1_iW_YXxHJQu
p1473
I38
sVOQMOgqS1NFIyAW4i66iDYAu
p1474
I7
sVGth9uH56jrChwgyGgQhTqAu
p1475
I36
sVPOHQEtLi_u1MkysI7Hn0DQu
p1476
I21
sVST8Yzlk2MqKlcaLqL2djBgu
p1477
I7
sVQofnqFw5epwPP_0VY6iDTQu
p1478
I2
sVOQPPH3MMG7paqfw1THYGsQu
p1479
I53
sV96qekpUBXmq3okuznAtIAQu
p1480
I125
sVwlZpcF8plwKlxigp0cNDHgu
p1481
I137
sV1J1GL0XY_uBu2kuPfnn9Jwu
p1482
I0
sVIajbWwj6l-KHrfSEwZBLgwu
p1483
I153
sV_lyR-OYpih8fXTficqZW2gu
p1484
I1
sVlvjvPFW1tBymHHN5Qank3gu
p1485
I56
sVM_8hm169M6QDMng-tAntpAu
p1486
I0
sVR0IJx1_alR_OXhHkTFq_Vgu
p1487
I0
sVVDHUtEnPh54OJiYow91d3Au
p1488
I16
sVW_QXYA7A0IhMrvbckz7eVgu
p1489
I7
sV9qB4q1s6c5AEoperHdNLxwu
p1490
I210
sVbKKVpwp1ERdWUl4lqc8ChAu
p1491
I16
sVM32QoptwyX6FmUsA1sGNkwu
p1492
I0
sVFB5y4CbqJzX3r7zELc7SqAu
p1493
I10
sV9IoWmskJG2sz7hEFAfqV3gu
p1494
I211
sVJhWVn2xiBruJVu0wiwMVqgu
p1495
I212
sVGAO3UMZnUSMKlbCU1iupOAu
p1496
I39
sVci5Z94G1ik7Kbq9PxOStGQu
p1497
I53
sVN2rvehlxiGV9uN7BjF1ocwu
p1498
I87
sVwNq0vudy0Q6mwiccuAAWBgu
p1499
I10
sVYy0xc7pWnQkktBI8-zTYfwu
p1500
I39
sVOh1o-WZ2e8peGy7rPLUFcAu
p1501
I0
sVRJXYPDGILnxWYsQ5hKqBLAu
p1502
I35
sVXCDqdxXK-A3FVh0aejXpNAu
p1503
I4
sVVD-RoEyU02NGG7655PMfSAu
p1504
I213
sVxHIyBT2iOb4d0ytVMfAzTgu
p1505
I18
sVsBXm7wsHKkrkcnyYRlZlzgu
p1506
I121
sV8vRuietkRQvJ9H5oLb-q3Qu
p1507
I163
sVdRdBl7Iuf1CJXwtO1JtwNAu
p1508
I39
sV5o7opBKdsXz9p-SIQzcFWgu
p1509
I22
sVEOlGkRn-83UnF7634dOUKwu
p1510
I120
sV6ts41fCsDKHbFZaKOMNmVQu
p1511
I7
sVkMiQnYFmAYbjHyyIPGSwoAu
p1512
I7
sVo6EiqD647POJPABuu_3uoAu
p1513
I1
sVVCZ42oA9yRKB93DQI5cHuAu
p1514
I43
sVTbrFykUpMolfWd__RxBjmgu
p1515
I0
sV4rIgZlwv3WQifoXwcFGcfgu
p1516
I184
sVF7zktmTInsmjF6NSi4tDUQu
p1517
I19
sVW-W3uyV66alw5FJWFytqKwu
p1518
I53
sVM_rUn8TIYxX2OLQEuC9fawu
p1519
I56
sVa3qD7KcSmCwFMNRhf4F72Qu
p1520
I214
sVbkv0EMVYiwWf6ULKbEdqRwu
p1521
I21
sVeCHl0WGwkx6ENkHsiMYoswu
p1522
I21
sVBWodVnFbZE04oFc5fKsykAu
p1523
I56
sVc8sigdqoFV2P_xlCU1x51Au
p1524
I127
sVOYpsdMcpdCdlkknpgpFMLAu
p1525
I7
sVqsyO7LAgVVFoLhxkdBwzGgu
p1526
I159
sVoJsnqRror1DUmi3jWgbwaAu
p1527
I16
sVzCxN_nU2o8LHNVzjRrWQbwu
p1528
I184
sVsiH7vPHHz1E4Bsx8dfKPcAu
p1529
I6
sV1qEWNA1otqI-0vW9BJ41_Qu
p1530
I21
sVauVkTXPmA8o3oU8barlBSwu
p1531
I18
sVg-lJlj7TNdfoNqtk3r3Ikgu
p1532
I18
sVeJMgz4oi9kWw0iau3NkFkQu
p1533
I0
sV5Bo1cEXkJbxIPR6mPIDIRQu
p1534
I9
sVZPk_wcW7Xot6LngEUj_F6gu
p1535
I56
sVKfq5v2funG56HKTvivvVPAu
p1536
I6
sVX01EFxZ1-nNAXh5W5puMwwu
p1537
I10
sVSezMIORnpYiviVw3SfU1AAu
p1538
I56
sV7Pyi-M7MfO3R2PHTuVY0TAu
p1539
I215
sVRIFHoJhOqVlhIfUoykg89Qu
p1540
I9
sVirc0y-KlZxflkW_JoOhGWQu
p1541
I2
sVobeCL4RSBKnG_LiO9dvE4Au
p1542
I9
sVBV8c4QZEzvPWA00ZqJp-jQu
p1543
I65
sVR9U8bZ84V-xPx3udCcU5jQu
p1544
I59
sV2ziJA4_AnTCAPIXzkq10nAu
p1545
I0
sV8d3AGso7vTLYxXrLrkO9aQu
p1546
I22
sVbr1XWZFp5pe7rvvduZwqjgu
p1547
I30
sVGd1Q35OWcLZS1W-cKtdVWAu
p1548
I35
sVOwCEsC0-oRxsSpTHZ0rrvAu
p1549
I10
sVM9zyD3urANpe6PoCnCJhDgu
p1550
I16
sV1v5esjekcOJ5JoSGh5_kqgu
p1551
I12
sVBMO1gWhuqtkkmH_X1sNxpgu
p1552
I37
sVrAQG7AU26ggJfFWTHdN83wu
p1553
I57
sV-F32Vl8Rk4dwsmk0f2wRIwu
p1554
I7
sVsCzBAa3GZEB_ppjG3qRwHQu
p1555
I10
sV3sEthHvzhgemMeF0dQNszwu
p1556
I77
sVAAVaJ1YNf0K9eT0svQu4ngu
p1557
I6
sVyETtApEyYQAmUQVOBgUjhwu
p1558
I36
sVuzWTAgkONAZd5NrfP9XXlQu
p1559
I0
sVLZ86tqJTvDdHHD68oluGQAu
p1560
I36
sVdxG7BtyPWD1eM48xqHYbOwu
p1561
I6
sVmSGCYGJB3TIjE92zVDmo0gu
p1562
I10
sVsmeyvZJSSEfAOHzUiPwmWQu
p1563
I2
sVWgPGywJp0pKS-ncbvm4M8Au
p1564
I0
sVH_JsAwjiGEOr_RlZmwfNsAu
p1565
I216
sVt9d2XrUmE3Hdv6WcAI2vHAu
p1566
I2
sVVibtr-_DiDbwZqaxKK8SYwu
p1567
I60
sVZK8dZkCNcgiXKkizH_YeNQu
p1568
I0
sVsnBHXvENp0MNfw4wuEbtIgu
p1569
I12
sVH4ewd_HH1DE0Y8RbC_7HbAu
p1570
I19
sVumn7lF1vDsNEEkFE7ipvFAu
p1571
I127
sVsYidJ6jraZjE18eMi8ouNAu
p1572
I37
sVjWpbwcHxQtggzIISVmDGvgu
p1573
I77
sV1IRyTTXa__KRxhxnz8fS5wu
p1574
I4
sVICzHFtcUQlK9mcDF0U_tAAu
p1575
I2
sVVZmjh4DrycVfTw3WigMQaAu
p1576
I2
sV-CyBQG3dc4UnpluY7UdMOAu
p1577
I56
sVjli9G-mRzOGuN18DpZGw1Au
p1578
I18
sVmQOIeSTOlsTRKTVWLyFsSAu
p1579
I51
sVQOSTq9c9B39rdVBOBs9xWQu
p1580
I2
sVHRHlw19ahi3sOYTSeBNEggu
p1581
I0
sVmKL4NUh4LC8Vlnb_vXjRTQu
p1582
I35
sVuPjX0JfKDSk0jHTIuikDxgu
p1583
I133
sVH__LUBdf7BWk-xBPIVtJ7Qu
p1584
I0
sVUqUel_4RH0abVhachI6o8gu
p1585
I37
sV_fp3oLtFf69zucwTeDiIUwu
p1586
I2
sVoIIyor8DxuQRshZABVVnAQu
p1587
I41
sVSlCfUUr1Pa7CzzSxbMH1pwu
p1588
I18
sVMwJVSTsUB-htphNZaIC43gu
p1589
I7
sVcJe1lPgXxlQso-wyLIOHqAu
p1590
I0
sV_FbZ1gXZL349iiz5D8gz2Qu
p1591
I59
sVIPu2iHwmJLBLmuGafnPo2Au
p1592
I18
sVH7NH96DxC4cUuBBCeMLa7gu
p1593
I18
sVHjpzhIQFRQbFmc_7CtFDmgu
p1594
I59
sVf3LA83yEEBMj9q92H28O7wu
p1595
I7
sVrpa5wYCeXO2kvQ92KH_HvAu
p1596
I35
sVHnqzojvN3AyZHjslUlxiJQu
p1597
I56
sV8-V8_9mX5oaOPRlHg-QQ9wu
p1598
I10
sVedy9zILE5uaa0B6HXEekLwu
p1599
I18
sVp7VKdqjT3WNvL7dRNNetcwu
p1600
I217
sVSJoMGpnY0DVtMlpjFK78-Qu
p1601
I7
sVnMv33A20PA_mGRxkJZN_ugu
p1602
I102
sVtV-CHD0zlQqea54XuogRwgu
p1603
I53
sV8NBv8xMD1dTkM7c9TTTbeQu
p1604
I28
sVlC0KGXmIhyjzghBUlVnkhQu
p1605
I2
sVDVqigFeLodiysUezvQRkGAu
p1606
I258
sV67QGJdqABqaSEsQR4esrsAu
p1607
I218
sVdcaWy4QA9F3KlqAs_n4WdQu
p1608
I0
sV9b5TY9v0-RibDNYUDqvDmAu
p1609
I7
sVfoIK-rq_3D-g8X7OPOoFTgu
p1610
I41
sV_Cu5Bvl6ZJc1v0lN9LXuAgu
p1611
I6
sVqeAt3hJ-ifUnnjTR5k8OeQu
p1612
I21
sV6Jb6ho3Zsu8EX4W7LdaPPgu
p1613
I14
sVD0STkWuN5jd_fCA2sjMqPwu
p1614
I19
sVhkPF7XnOy92HQ8CCAIIEeAu
p1615
I0
sVZ0w6C-21dwt1rXOhmepJJwu
p1616
I18
sVGlVIC6S7gs2MgWp89oDu7Qu
p1617
I36
sVDDPwyrdmtcQVkscBtn83Owu
p1618
I38
sVA_O8wZOsMTPwyeYA4-Rsowu
p1619
I7
sVSUcoN2gzxMX3IPfBWp-cSQu
p1620
I43
sV2a-7cf9r2WscwX4mdLogUgu
p1621
I0
sVJVTvEtBDi-WDqB0PSTf4BQu
p1622
I67
sVPO1H81tZBIjRK84sWpCsVQu
p1623
I39
sVovOWuEPp7s21uq2zYaK7OQu
p1624
I191
sVWK2Jh-uBmeqH7oI9IxfSHAu
p1625
I18
sVv26k4Bzy9GiLLlSmDk8LfAu
p1626
I7
sVPxtqwXQlbLxRz0Dh4fvzbwu
p1627
I22
sVduSK0wrw5aVud9tf-NBIbAu
p1628
I190
sV60i9h-gPKH1f0YC_bZXDhgu
p1629
I30
sVwoXhdtL9ds78_mz8mOY4Vgu
p1630
I10
sVvzwS0Hy3J5r3URvQ3eJr5Au
p1631
I115
sVxNWuI4DDw4NMMEXnpy-g9wu
p1632
I0
sV0rRTTYnjOtMDD32RvlxPowu
p1633
I18
sVOksbhhgC71Ary3zNHMypeQu
p1634
I7
sVl-_P_HbkVlsllo-ix1V6LAu
p1635
I28
sVHCFkEJRE2PJkkrIvZDrIOgu
p1636
I16
sV_N-DeS909pOyryxC0mMAjwu
p1637
I2
sV6H8uMD4XWiSOzHXFzFwB4Au
p1638
I6
sVamNYUamFs7V2pEakBLdfCQu
p1639
I38
sVUD50KxTeVfq5tbcvbYsBFAu
p1640
I6
sVjy1qPe0Tz3ewHacAtshmBwu
p1641
I1
sVVlpwSHJnXruY2nWJMcvg7Au
p1642
I18
sVp7dvahRPZIWL7T6pFA_0dgu
p1643
I7
sVRZ030GLNYYPkr9QDrI2cNQu
p1644
I30
sVUjKzJ78F4mUi1rNS0EjH_Qu
p1645
I36
sVZcx66YAlgyClDEhi5W86Hgu
p1646
I2
sVxfz_Bb4RIYH7N3luWqbyHQu
p1647
I19
sV7aVtVu6ANtsCEfXfYoSkTgu
p1648
I18
sVQGQVXiICewN5PQsd83-d7Qu
p1649
I30
sVyzG7qvuLG73CvzxDMDizvQu
p1650
I18
sVsul0rJDvTT9QTMGiuA52WAu
p1651
I16
sVpv82zTlB5Txsu2Pusu__FAu
p1652
I7
sVN-Hn3--2DO5HzvrNcRGRagu
p1653
I39
sVeQP0jA1qHQ7dnsvah_gEuwu
p1654
I10
sVI0pyeAcqXQl7Rv-DQmgHowu
p1655
I10
sVcb_N2blI9xsF8vaFL5Cwcgu
p1656
I18
sVBHiT4ZN7QfidPE_iFPruRQu
p1657
I220
sVRqfHaelhNMn-UpTRnAtw8wu
p1658
I10
sV28i9BnGOUpL4z4HJC18gfgu
p1659
I35
sVrRiBDH2U_IlydXTh2a81Rgu
p1660
I1
sV7E4kwOgsH4aKKRhdbtwJqwu
p1661
I0
sVHV9LHnhcpKerGqmLk0MpAwu
p1662
I7
sVHRmeBNs6ZpByoh6_rONZzwu
p1663
I6
sVX6RyZWTWZNIVEwes5T3WGgu
p1664
I10
sVa5q6s4Lm5LpXb7662LDccAu
p1665
I28
sVOpUXG69nP4YjlEZDlkdVcQu
p1666
I1
sVA99dyhEqcd_yXKPfBWeZHAu
p1667
I56
sVwVuavblHM0NixaJKtpSdngu
p1668
I22
sV4Dqeb_NGFpLG1PJp7wqaJgu
p1669
I2
sVupP6FTH739wJZTce4GTMbwu
p1670
I18
sV2Yh1kRX52QHKzY2vP_jVQQu
p1671
I6
sVzFfXgANzhIcD-JkdBygcZQu
p1672
I0
sVKjlVjf3Rji33oiPnzAIqjQu
p1673
I38
sVkbE6ZgYaytswPn1n3fligQu
p1674
I2
sVq1ILiFfzpaf_UapvlFDn3wu
p1675
I18
sVR0ekUK-osGP9AoUtyrAEUwu
p1676
I18
sVD9op2r1WXAz74Sn8DgxlIwu
p1677
I35
sVfI_87gH3jSuxdI_Wq-Rmwgu
p1678
I7
sVNvDR3SPVPXrDB_dbKuGoWAu
p1679
I7
sVcKG33X2zHPB6k5-Fr_0uMQu
p1680
I30
sVh2LuMuB9eEwujASQh2I9qAu
p1681
I81
sVzLIV35n1gZ4fg6cGSRqNIAu
p1682
I7
sVXxA5k_iyzf9HdvPMp_J27wu
p1683
I7
sVC4p7JvOmfdWNinPDbja15Qu
p1684
I41
sVjPl_fIm16CLiV7M6yYigSQu
p1685
I106
sVIgbyoHNPF7D2yHj0PePJ_wu
p1686
I10
sVKplhMfuEaG3-k93cmYU5ogu
p1687
I10
sVaEJShF6kF5rATlfbHqhYOAu
p1688
I39
sVDqQf_U39vTcxd4nwNSbZ1wu
p1689
I221
sVU57ebl1SZYVYJqe9Ksvnkwu
p1690
I222
sVUyEce86Ya_ca_yKv5AgENQu
p1691
I19
sVgdoPetEmoNslU0Hf3TmuEAu
p1692
I18
sVZUV8dBHeZS2GA6pOhL-czgu
p1693
I16
sVpNvoNTu6U7Ek2w_xe4QO-wu
p1694
I30
sV27ieBXHQocroAXIBHDGKNAu
p1695
I18
sVCAtM2DeMIRLkzDg5XyCdMAu
p1696
I18
sVsRMG12fVSNEV3v--hxv70Qu
p1697
I4
sVYJyCUbX2cTLnwyJ0iC9g_Au
p1698
I223
sVYjdSDVKNtzGOeerdID0yzQu
p1699
I38
sVktVqbdYVfMtgyh4enD7bJQu
p1700
I37
sVlPaYMDmJbAnv_3pmZH_inwu
p1701
I7
sVqu8w1fUZnqON5ikXVpis0Qu
p1702
I118
sVYxRKHhhuWxX96_quP9Tgygu
p1703
I6
sVt9dSBPONLTj7dpTsd1sJnQu
p1704
I16
sVwBR79W688GHHVsZWF3dBqwu
p1705
I39
sVyDiEls8Xida457e3dYQbpgu
p1706
I224
sVsM_5WWwzsKomERthYdmd7wu
p1707
I2
sVQHWGKJlwpchGsEURbbSDKwu
p1708
I38
sVQQxczGOdxkCz9v_efl_HlAu
p1709
I37
sVpnEzSccoQlXf5ZvOCAw_XAu
p1710
I35
sV72aM9jYYdiQrQF9uOQHAPgu
p1711
I157
sVEdxdVwxINfoXSWB40TZaBgu
p1712
I96
sVU-3BiOIBeS0D2rbrw7XjzAu
p1713
I6
sVHVqnEnkir1iGG0185VzYRAu
p1714
I1
sVXIOTsKjvbMLp-i-p-x5RvAu
p1715
I39
sVg8a_CLScjHztpxY-Sp9_6wu
p1716
I35
sVeI_iX-so_LNK_Tke1-osigu
p1717
I7
sV-uYfeJs1HNUBRDEBYdv7zQu
p1718
I16
sVuptgzZkEm4ytmHuZKBtnhAu
p1719
I159
sVOJ4FQEvd2h8QXCMHwCostgu
p1720
I39
sVpx6RIT_CcE2Z1Jd52C8TQQu
p1721
I39
sVFeYtXSuqIRD4K9EP4tEyMgu
p1722
I37
sVZDZr9jCc9FznutQB_kGvLgu
p1723
I39
sVBwo_j9OGpZN60T5HxKOTeAu
p1724
I18
sVpErAerEObYkIYznI3GhS-wu
p1725
I18
sVzing3W2AVxcHwmBHid-Fcgu
p1726
I42
sVtIdJ0rSVCz7nRrqQM-MAcwu
p1727
I16
sVV3LFcJ2Xk3Ol-rvgCqRY-Qu
p1728
I4
sVLYGZXqR8zAXB-0gBD2RKigu
p1729
I28
sV0Nzq2vv8FoGEGosfZDP4Vgu
p1730
I37
sVh3WSnBJKQTndnejB4RrHrgu
p1731
I18
sVOVffArTHuWdQDWFGx0X71Au
p1732
I10
sVW_7aQXf0uC4GKvte4tlewAu
p1733
I7
sV4uw7hCPC3owbFuhAkyxrAwu
p1734
I10
sVmR1hWOIBRMJorZvZL6ZjkAu
p1735
I130
sVWNMAyrm9x6BJlnjqPFZ3Xgu
p1736
I10
sVVWmQB-C-HlpXiV_FMTqX0gu
p1737
I53
sVXJ6CPpeTLPQxyOHcA5jbSwu
p1738
I36
sVdWwaTl_Fmvl8djX0bVVTMQu
p1739
I18
sVlOvgjEkecLfVJwJriEjt2wu
p1740
I7
sViZtveTtgf6ZMd6Ym2HK8Igu
p1741
I0
sVgP-l_Gb8PWTsqupoKqsccQu
p1742
I0
sVZXXNfqQfydJFLAqBtzwM-Qu
p1743
I18
sVngU3dmmM8ERLT5hrz_iS4Qu
p1744
I30
sVhs8t_DMnNNpf_wXtFE2xpwu
p1745
I30
sVZm2k6dJtqKDz3pZ70SwohAu
p1746
I0
sVzihG1Nzuw_G_mqbIvc7WCAu
p1747
I76
sVJiMnOPP_hGX4DuMPzmdjnAu
p1748
I18
sVcOfNTptaK6p5oUq5_ROokgu
p1749
I39
sV9NDoQBMm39ZFxy6sDXjcygu
p1750
I38
sV6CJBUmthxEDfZF4DaNI-Rwu
p1751
I21
sVqoe6DnfW5B0ZN5UjpX1OGgu
p1752
I10
sVd19_YEGjzLfG5IAxmf4G7Au
p1753
I18
sVCFSw8Y1MaJSp6xVPIqgxeQu
p1754
I36
sVzxuq7MORAKtQL6b6LCxojgu
p1755
I225
sV9vxUUOoasnu8gtoXRwAhYwu
p1756
I22
sVtZd2nRXeT_kWMktN-_cdZgu
p1757
I1
sVQDFF87mFaSCr3AUAumKdmQu
p1758
I18
sVc0ek22X4buotT9xz7vPT0Au
p1759
I10
sVkMcaVSzs-4VpxrrCsE2T5gu
p1760
I63
sV-SvLqaZ_VW12Gnf8kHFHOAu
p1761
I30
sV5Zl1HM8XfFjh8bELbcTgrgu
p1762
I56
sVXvw4kRnBNvOT4ZrpJHKifAu
p1763
I38
sVB1C6MjG2KzUtb7IqzjBj4Qu
p1764
I18
sVsPDwsdNa22Y-52cbjiTyigu
p1765
I36
sVzn81QpflLDUaGZkCMUowCgu
p1766
I4
sV17PPxx8RxjOUD_nQZ1aHEwu
p1767
I7
sVrSbqoimVUWPEbNSGwyjI-Qu
p1768
I16
sV9tAH3Vl312bwk6Yw0cnP0wu
p1769
I0
sV2ndinVtqvVM0I-JWZxQZ9Au
p1770
I41
sVQFj64b_eNwQaeJTvgkcvQAu
p1771
I34
sVBVR83V7Rag8fDRXPKJYRjQu
p1772
I2
sVaHKSvKzfpwfTlu2dMJkzSAu
p1773
I0
sVxU7n0NjHdui0VQShuxEXJwu
p1774
I189
sVdu6KeE54IFbPiXpU3LOd1gu
p1775
I7
sVu4kF4tOa3XMAY6BwsijTNQu
p1776
I21
sV0EgiHCjfGKwIH7tOlLYrzAu
p1777
I0
sVN6fXTxMFxtHntDZnEotAtwu
p1778
I22
sVNQDdhVEhAvqirltBhNXeCQu
p1779
I0
sViIQbATX70Jsbosv4OE2tHQu
p1780
I10
sVAggpf1EWooD85fhOhoRxPgu
p1781
I6
sVeaX53FCXTykf5n2e1XsW1wu
p1782
I7
sVIQTk7FS2EF657T8wJqr-swu
p1783
I1
sVmktsEIkI9PXhUGpIuH9_uAu
p1784
I2
sVg5XFARMWC2rZrujXRCa0Hwu
p1785
I36
sVCPzYvUVrJ8H7nF0WH5UGJAu
p1786
I51
sVE8OdPGNMMWtEx032vXDLTgu
p1787
I94
sV_8KAa1lhcX0JEmDqvODwFgu
p1788
I18
sV5G-6WKQ7VHcLsvRt6kqKvQu
p1789
I7
sV5y0N0fTEg_ZGEGDGzzRTdgu
p1790
I210
sVpNNo7mVPI8j3HFCw9tuzPAu
p1791
I227
sVHkwfN9ItTrbyTEmkjHXTKgu
p1792
I10
sV3dHAHbMesWcpET-D0zs-LQu
p1793
I39
sVJGGXT447a5zVfanaIUb8uQu
p1794
I22
sVY1PelgD3NvDHNoFuSM4aMAu
p1795
I6
sV3eCop79M0i2HoZGh010Nvgu
p1796
I229
sVRmn3IKQ0qihXDY5_u-6h5gu
p1797
I137
sVo33IBagNFxdJhIrRTl691Qu
p1798
I7
sVJXjU9EVUCJ1rmYKxzDXSlQu
p1799
I35
sVUqStea4GLwFdf8ijzuGBLgu
p1800
I126
sVuroq5iEgkjia_XRGPeXMigu
p1801
I53
sV8RNm-Oft6BsUWsXIdiLAUgu
p1802
I54
sVaNaAHCz-JPa6zwrjOFASoQu
p1803
I1
sVz5QQGDqErjMKD8XtM00s7gu
p1804
I230
sVHMpMXskg1OZAnqGmB0rzqQu
p1805
I185
sV5iuYVJh1TZZJleahjLLXVQu
p1806
I21
sVV2dNkzZOk61E-ChEOwDlxAu
p1807
I18
sVQJcLiT1zTJMzrsXWi5RgOQu
p1808
I0
sVjWvzAN1czxypi-GM1KY62gu
p1809
I7
sVVDRYPEY-zSs3pbetLkGiiwu
p1810
I213
sVxqsk4LUMt2T9a3GGHQwpugu
p1811
I36
sVHFzJb1EnBsB6fD5s-9fXUAu
p1812
I7
sVTcLhgLTeeWN2hdK-I6fgJQu
p1813
I18
sVfrzG0-NIDVWmrTS_tOz8VAu
p1814
I0
sVJDomeP43HUjNceEI1RqPzQu
p1815
I41
sVZUERBXNzvZMGyu02wlIKZgu
p1816
I18
sVRNSGaQSkC56tGPfKt9lHjQu
p1817
I0
sVf_dOTNbfETTCqlt8Mhbh8Au
p1818
I10
sV_6NI9_kujXCUEiwrnDI53gu
p1819
I34
sVCEW2upzTvsSR3FRp2N2qlQu
p1820
I160
sV_ZJanTGDypTxfm1Ut7IqaQu
p1821
I231
sVFFzadNTcO4mwRSELjBq9Cwu
p1822
I6
sVRx2RD3sfwsbWJcydrm2bAgu
p1823
I37
sVvrM_uBgwfDQ6bQxGVHdUGQu
p1824
I0
sVMcMS1Xw6qouR8M4pygTNDgu
p1825
I16
sVmAWDlmTrBCbxZftZfdJf3wu
p1826
I2
sVEs3qLnf_hAgOdLeeq4xr_Qu
p1827
I30
sVTocDkq1UljoZ9_Q0cR-3eQu
p1828
I196
sVkWVXU5Z5Sj47J1OzocVMogu
p1829
I36
sVo9Cq_xSZZGW5BOT20tV8qAu
p1830
I12
sV8wK7_qZ18mokBxw5zdSo9wu
p1831
I18
sV0bNXP9quoJEgyVZu9ipGgQu
p1832
I7
sVWESBNCIvswTWh-Ak2uGf4gu
p1833
I28
sV0BT613A1PBxuwxUzjEb6VQu
p1834
I21
sVMQHmGQCCvvQ2EobcM4Qhlwu
p1835
I195
sVuWeMgQMWd_dxqSxPpnd-qwu
p1836
I18
sVJ9dYjTo3g0VRyB3NeSS7-wu
p1837
I176
sVFX08eHC3TK29JEilRt5V-gu
p1838
I4
sVvlxXm83oGWun_aQT73c8mAu
p1839
I39
sVbOB4VBDlGR23v5CUQHboYAu
p1840
I10
sVgXmtPKLWPZJeJX_KPw54HAu
p1841
I38
sVMBhvsi8dJTHuaKn4v98XRwu
p1842
I18
sV9dk8ehoNV5tnuMfS8IefEQu
p1843
I116
sVz3xOgubkCYr2qNi7IuG9Rgu
p1844
I9
sVOvpa3S8xD96dLE5eDxcxJgu
p1845
I7
sVxnYnz-XZE-NxU--Oq0Ilgwu
p1846
I12
sVJxc55V4D3iHAataiLpylDgu
p1847
I154
sVQ4c-HD4iycZGrAnNK6d0twu
p1848
I16
sVVO-AemelxZi83yS0FYvKIAu
p1849
I22
sVSDwNym_yVoAhIbmqkgNVuwu
p1850
I18
sVGnZWh25MyJD1d5FMKl3QmAu
p1851
I36
sV9FbgqZ5u9WTLAs28nNafIQu
p1852
I7
sVfczQCSmaWF78toLEmb0Zswu
p1853
I7
sVLQi_RgRvMi3Y1gaFgIaRuwu
p1854
I32
sV1qw1NflQJvb0WhKn-_hwDQu
p1855
I232
sVCDM9UUnHzjT4rRoMwhwO9Au
p1856
I44
sVgJ3neu7zF9a8wi-fUV0zIwu
p1857
I12
sVf01B5tRtqf3k6ak1pPSAWwu
p1858
I7
sV1WwWI2AMNL--KeoOZjzXzwu
p1859
I16
sV502HUL3Fc3dFW17HWaHXlQu
p1860
I194
sVZW8jy6ehrNzn9A5iCubVGgu
p1861
I263
sV8oY8gmr4NYwHgiYjTjh7Rwu
p1862
I18
sVmxwQi0rr25dIvHUaCs7EFQu
p1863
I0
sVMjMaLeWJSw_CSzNQJXqpjAu
p1864
I1
sVazplqaEBLGzFzPyYBRP7Ugu
p1865
I37
sVBFi1UUUHJwnu0EJIWHhNRgu
p1866
I10
sVxgvDpy5XIFdXaMPRTlpOZAu
p1867
I9
sVyz_j8mA3pnkdWkZ6nimBwAu
p1868
I18
sVR6OdqGQTtr2aDb-KWqHtxwu
p1869
I10
sVU4j1MmMVZlts04OZxz87SAu
p1870
I34
sV04xW5mhSBaCzpjbcf2VSZgu
p1871
I0
sVwYzOrThSYP8WwioLfsu4vQu
p1872
I16
sV1xvQJ9N8Or8m6Dl74txFNQu
p1873
I0
sV3am2PwtajoR3LIlP7XZtbAu
p1874
I18
sVQYXQ_M4-U6ptDMHtcRi9kQu
p1875
I0
sVfnIrEZUlnNF6UOPvfieTCQu
p1876
I18
sVBfetZm9fa0zqyAFn8vo_6wu
p1877
I0
sV9tVLD8PjH7Wwn_EAmCHzWAu
p1878
I18
sVkwOG-CSarTLTeZq2coqAqgu
p1879
I39
sVXsSnBoDIGxiBaNlLPm8gmwu
p1880
I28
sV1ADvDGbYb3DVakds4jCAnwu
p1881
I38
sVPwil2kkb1mNO6jVsAI84wAu
p1882
I35
sVSiECS1D369ZG5LCaFMEsCAu
p1883
I53
sVy9IKf7VckFc-fesWuDwgxgu
p1884
I7
sV0tICszzYFa8pbme9ponz6Qu
p1885
I34
sVoCDn4bcj_IYUaNDb8lCdpAu
p1886
I18
sVWEpFzCrF2HJraSvuWZzsqQu
p1887
I0
sVEWWiBuidTJtHGSYM21i9iQu
p1888
I10
sVMy9DUYlhgwARA-6JJ8_Y6Qu
p1889
I233
sVIhbboazAqdNxz9tg5T2rkwu
p1890
I234
sVOw2bRySwb6ykdYQ5snm0zQu
p1891
I0
sVErc6PnQ5-z5NN632eBnUzQu
p1892
I51
sVS6NrF2WuiJXp9BbWEDpcHQu
p1893
I18
sVLqgGgWi3FLHBViX9tmZ9swu
p1894
I7
sVayKW9eWwGFcrtJaHcwZUCwu
p1895
I37
sVPCLBPfdOkNpolkCI8_7C9Au
p1896
I10
sVckNi88QZoXRfgl9nSdXtbAu
p1897
I19
sVbIVnclr28abP6XP79jWFlgu
p1898
I10
sV4i4grJsSI-vPyJAOFzVCnwu
p1899
I0
sVkGgAARL2UmvCcTRfiscjugu
p1900
I7
sV4I20VXHPK2V3pY8yTYm6sAu
p1901
I19
sVYBVdmm5zlpLpi2_DiKsd2Au
p1902
I187
sVysBQMZiuZ7VSu_YAh-lE0Qu
p1903
I7
sVWn47EMhtvJQZTsfvvcnkJgu
p1904
I12
sVxdei3yBE2xXPNzELQpnS5Qu
p1905
I18
sVSySsCa_sJ8LPwFo90bsYVAu
p1906
I16
sVusQTOj7LQ9v0Fl98gRa3Iwu
p1907
I7
sVCnLouHVXdR7M10Eulfhvsgu
p1908
I9
sVohRev2g3tvXpV3gBnhC-ogu
p1909
I247
sV4ISG7_E0jmpjIZlBBtZnQQu
p1910
I19
sVd8ZgWQENWo2DKu0sYAPqTwu
p1911
I0
sVFeXsw9JeBpKf7hcnmJJtkgu
p1912
I203
sV9zuPDV5lge3dBTtYOHYvJQu
p1913
I35
sVfR6Vch-D0L6OBnLMl8f9Sgu
p1914
I28
sVZ-1BdQOqTpkbrhyudwX1jQu
p1915
I18
sVxLWS4QNwWYtRN8-KGotkkgu
p1916
I56
sVNdytAQjOvVt1Ro8-Z99ngwu
p1917
I1
sVuhv1yOLkG-8rMPV5ybr2hgu
p1918
I2
sVmWx5Sxt_dx-sYBZg6RgJHQu
p1919
I1
sVEFvoDZ_B47s7-akDMN7aQgu
p1920
I211
sV9xgwk-4c9JA66moxMk0AMwu
p1921
I235
sVzs9EphhkXylrxHCzxhC_agu
p1922
I1
sVq9B5_BOza_1SCRRKd-akzAu
p1923
I236
sViJePycN1ZDtpyN_tJ6J9wQu
p1924
I53
sVO8w525BpmlvbocQRhavfmQu
p1925
I10
sVwy8Yd_vCWDjiz9rMo4HfqAu
p1926
I182
sVbWWtNUNZwGkP1P0Y1P3srAu
p1927
I28
sVsAt_1qUHwhcJe3lSMArzeQu
p1928
I146
sVM7B2A90idij3HDfCvfEBWwu
p1929
I148
sVJJWTT7VMxr2H-22zX3dR0gu
p1930
I117
sVn8yI65hI3wGBBYddnz1dfwu
p1931
I41
sVLP0bl3GKToABt3lnpSvA2wu
p1932
I137
sV6nDU6uu_qtYJJe9_XroUVAu
p1933
I1
sVG4IR4Mqsg7kFLaruUpAP2Au
p1934
I0
sVU0p7oC_szKfhOqtthsX4ywu
p1935
I134
sVfFn26KHxboC-iy-sHcgcggu
p1936
I53
sVSMezBhXVe7op2XaMVlju6gu
p1937
I238
sVj6daHe0PMLyEInsI_CgoDgu
p1938
I189
sV9OiOuOhxnXZ3zcqFaIZiOgu
p1939
I41
sVDZ7NafMn4ACDLcdCiWlllAu
p1940
I239
sVUPtysDF6cUDUxq2KY-6Dcgu
p1941
I39
sVHwnKDPHHdkfPqt2-zWt-PAu
p1942
I28
sVTi86eeLrIhpNHDpjbla_fAu
p1943
I61
sV-N2PwxuFkcu7HF_fVnBHEQu
p1944
I0
sVAMYi-53cxstrCR5wqyY1KAu
p1945
I21
sVt2Em6xzwcBP5KSz_LGQMFwu
p1946
I16
sVAo5NMxuqJ1riZ4oLO6sEhgu
p1947
I197
sVp5JVI5TkPtUtKq2_J3DrDAu
p1948
I16
sVVRy5rz3CI1XzHlpukQ_heQu
p1949
I18
sVDBFO4ODn99lW9sAL9SyT_wu
p1950
I38
sV7kRN8IkOWlLblEltNlnfRQu
p1951
I0
sVGXgZEnuAKURhHwANOpHmtgu
p1952
I18
sV13xj6FSvYO0rZVRv5XZp4wu
p1953
I34
sVHPxji3cX5H460ECCgtnGHwu
p1954
I2
sVU0RTN7sFRUG9M8_Q2eDrrAu
p1955
I2
sVXRjmRSO4XhkUVMKVJOSEIAu
p1956
I240
sVsTMCfPPAOXg5lj_PvU7N7wu
p1957
I137
sVrSBYu1pV5AF4WGJUWIdjnQu
p1958
I10
sVn-2gSytw4x3Q_rbweZnfuQu
p1959
I18
sVOrkXYCH82NnidREHsGn4uQu
p1960
I16
sVev7D2jo5OUDeHf0dWoWlsQu
p1961
I18
sV7ToIE5d3_oyqJ6zyxg1OVAu
p1962
I256
sV2bAbL28lhrnyOlYiZ8yMdgu
p1963
I230
sVK2TQ1HBU51Y8i6MCDI7gLQu
p1964
I56
sVHM7izo_8g3BiNEFdXcheaQu
p1965
I9
sVEjCDToCUiIf1_ZtqG6yyywu
p1966
I18
sVR1ZoIgMxusX4kvDiHHziswu
p1967
I0
sVHW62PK3ONIL6wuiB-jt5hwu
p1968
I0
sV2li317oUeXfPNjyPAvm6wgu
p1969
I30
sVSFugC_G3V8OoT6ruPOszqwu
p1970
I18
sV8-VLDMz0nAV7dm4tFBSGTAu
p1971
I7
sVz8Mi9n14nNc1fU9Y9yz7Gwu
p1972
I19
sV5wN78N4K0a39C-uPzPmxDwu
p1973
I7
sVwJeDW_1SMkipvPGP3Tv-7Au
p1974
I10
sV125BWA95-0GR2tIQDZ23dQu
p1975
I18
sVoguZELseKCGWBFUjjH4CqQu
p1976
I10
sVeqHh3T-QWN8bowagW4KiGgu
p1977
I241
sVr7d9Dy6dMzMJoZ6MB8s1TQu
p1978
I242
sVVn_XO4CfIVVtbCk8PBSxmgu
p1979
I242
sVvU1bHO3IjqLnf3_9Igeluwu
p1980
I10
sVVFVCx3Miezti52ZNuCeiEQu
p1981
I30
sV2Mm0BC0bN7BJiOUWf9GW3Au
p1982
I16
sV07_3pjVwkKZIieVdHlbbXwu
p1983
I37
sVX5GbNXY_nNoa_vTZDD0aCAu
p1984
I0
sVs4gvRalrkZTYcu2UbRAHigu
p1985
I16
sVl2qZm-1Q39u-IJ3jBhgf6Qu
p1986
I56
sVbZ0mTBSqb-pWXgxxMbZUbAu
p1987
I0
sVYs0ZU50fVW-BeDGjKto0mwu
p1988
I39
sVy3d4v0x-vD10hw-O0YKa1Qu
p1989
I10
sVFLtIvthFtPUlc1204LHAJQu
p1990
I18
sVFW4C9Hc-CR9tj112CCBCLQu
p1991
I1
sVLK1POYLdvIBWzbqDxaxKRgu
p1992
I56
sVSSXLiQkrdPLd2YJhNyojhwu
p1993
I0
sVfJI5_IH58lbQXGUfhS9Bxgu
p1994
I39
sVlDdZ1MYQeQ44K3uNwYYTSwu
p1995
I19
sVPDpWGp4PVts0rxK_h_2ntgu
p1996
I37
sV1Am0pv3HWphO6QVycWHL1Qu
p1997
I18
sV51-ZrwQODnpIX0dQEshZNwu
p1998
I0
sV8J9OIwQa65O0IOQ3JCZOOwu
p1999
I130
sVDWYH3H49-KhUoJX7TfidaQu
p2000
I18
sVIhLilfNVzCYvAAlBdqJVlQu
p2001
I101
sVp3QX1ZoFOCrin4ojNOVkBgu
p2002
I19
sVl81ILmOhky5bG7o4r3rkhQu
p2003
I0
sV0rOIvxlURdppFMU9u5Ep5wu
p2004
I6
sVS3bvMOL50vgS_8-TtlGi4wu
p2005
I18
sV8m8HQtZox4vS-N-AW3mzxwu
p2006
I39
sV4mRx2noRJ1FFRPlzSVEEdQu
p2007
I18
sV7bOQtj4IEcoB_pjvstJ-ogu
p2008
I39
sVHcRkWWnGJ_7iYJs30zXrxgu
p2009
I21
sVXBt1WQrKFWJ4WyhV3B9i3gu
p2010
I37
sVyyVaDXsgGPw3vl2bv-1R3wu
p2011
I19
sVWBnDaCld2S9hvmFNIqWCEQu
p2012
I201
sVgvagj7As9OEDZ_BgufhtEwu
p2013
I22
sVWPjR6viRLglxD_BMztch2gu
p2014
I18
sVKW0Nq1aGGLeP5XpvTQPshgu
p2015
I18
sVxLJ6MHxDlZAjd58sazZMSAu
p2016
I187
sVh_gopaLFyHShSrjB84JrwQu
p2017
I39
sVvg8QL0zzifZDDr5dZLIRPwu
p2018
I18
sV21YHe4qyAgi7ZE9kNys3iQu
p2019
I210
sVrnAjFiW2lG7-LCxb419iDQu
p2020
I22
sVpc7iOC2-zkU8_S2atxHxKQu
p2021
I18
sVHMgpmyiFB8V32ZTkTTnovgu
p2022
I1
sVB3RKWnj-ma9dqtFUOa5WbQu
p2023
I0
sVjjmVBDP7zHwysuYNVwavpwu
p2024
I18
sVZA5F3YuOP61CeaNERwX9_gu
p2025
I39
sV4_YfcfHkCem1onJFkItxjAu
p2026
I7
sVrouEJREISaR5k6TDeDnN-wu
p2027
I134
sVfMyKbyYY9Poy9B_1QZPKcgu
p2028
I10
sV-XkW4sYeXhvfoUXvTUL-ggu
p2029
I59
sVXyaIK2hN3SNMohT5AbKxbgu
p2030
I41
sVQ-nwYBy7i89w00B1YvTL0wu
p2031
I30
sVHch2Ut2vZ3P8YKGkeEjI-Qu
p2032
I19
sVZwtx7FLZcK5F2P0-Tz8mHgu
p2033
I7
sVEuT0_VBuRo2ZLEgp8Avmcwu
p2034
I21
sVLN4cXKGPaGMDHm4nP9Idtgu
p2035
I12
sV_LEWHyKohTUSmL-uu2Y7pwu
p2036
I53
sVqm_taT07Oy_87h1evbRQewu
p2037
I201
sVHUwzK-0VfdI780d2qmjSFQu
p2038
I38
sVXqMkm-DD9VsdcKx2YVGhSAu
p2039
I7
sVLusAw6vTDC7KAfbuClMReAu
p2040
I19
sVyQ-jR23iMPWd5S4fWkh7Agu
p2041
I6
sVnsWA8mR_Egp6HRqwCD3a3Au
p2042
I41
sV6OLYPJE34GLso6htvruISwu
p2043
I236
sVZdDmxmGVhHHI4PzmVdTzxQu
p2044
I0
sV9HUI7cYDf40dDsr_ULbAeQu
p2045
I0
sV4F03EsrWxSjf9tMuJJ7uogu
p2046
I0
sV28CGAa30qiouuj_S13udFwu
p2047
I4
sVfeOEYwYbHDefLDhNfvxJ9gu
p2048
I18
sVKIKmorsGu-a86NwcoTTiTQu
p2049
I17
sVrgrECAY_EZ_xFdSx6CGfvQu
p2050
I206
sVCEEIQq93JO8aSRx25wir9gu
p2051
I21
sV5q_h6Uir_bow-rDIjFfr6Au
p2052
I7
sVakTVHMGkL4FLEdnepGv8sAu
p2053
I14
sVLkDoey9mG05ROa3ub7jbfAu
p2054
I0
sVWgvq9BZwHLGY4jBqvJa8_gu
p2055
I59
sV1mal-cvLhyX8iGEt56_5Dwu
p2056
I38
sVrWFCaDU05dUelPe8gFtJvgu
p2057
I1
sVWxQysGZlxxfVXy73ldm5EAu
p2058
I18
sVp8dSifN8MWzbygrSqoqOyAu
p2059
I7
sVPeWTVqaIBsMYGOUGFH9ywwu
p2060
I0
sV0ST1KniOKB9Evq-IuUyMIAu
p2061
I18
sVSw0a2MqKmcsXhtNPxM8vcwu
p2062
I39
sVsnK49gWJBJHk7Of68aEbZgu
p2063
I56
sVQOteSd-DMnuHLS6hKetCegu
p2064
I2
sVn_lAaNGeWgspbbCJc0DqRgu
p2065
I243
sVvwLmvuSyt2qervMRFennHwu
p2066
I244
sV_Lz4b5QL0K8ndeyz2vxslAu
p2067
I18
sVdT2yS4VH4OEAZ5WqXDzXtwu
p2068
I0
sV39vKegL8V0n4iuKwMsw96Qu
p2069
I225
sVRzq334DjzjfaE2ES6ELXmgu
p2070
I18
sVkI1MoLcExqwmK7wcT5Vy1wu
p2071
I36
sVMdnxEjulE8ajZx1iZcJnTgu
p2072
I18
sVZoiBl0VS-36RXokRTJPlSwu
p2073
I39
sVTFoC8qQCI2VfQe3rB0Q0ngu
p2074
I157
sV0aouU2Yfzvdie87pI12-Uwu
p2075
I22
sVmEMun-MSV-Rke3oB8qD_Cwu
p2076
I2
sVP0oMcxect43NE7QPw_AyKAu
p2077
I16
sVyC91d5O-Fn70RHXShLDXfAu
p2078
I118
sVKqvfep2mxS10S50FbVDi4Qu
p2079
I7
sV100Df1wcVrl9rJgB7EG6xwu
p2080
I18
sVIqrtFpXjwUhJNd28LUOOegu
p2081
I21
sVa1DUUGOKHbjuoL_Z90AnuQu
p2082
I56
sV8GEVI2ed2dTW4_qYjYLfGAu
p2083
I19
sVFNbm3ycU2BF8C17UFfWzOgu
p2084
I4
sVyhgWeNHwQJ32qUYCUJiwHgu
p2085
I51
sVE2DYTWOVSptFJqM7jckPpgu
p2086
I161
sVgQhHDBekmBHSKdQ2j5mmQgu
p2087
I0
sVfYWIxI6kwuVqpPu1I1baWAu
p2088
I22
sVfgrzZ0wl3M1D9nLAygAtuQu
p2089
I99
sV-l3JUkVxUj2e7Q9u42bzJAu
p2090
I68
sVNSPP7lHF_jIBt4yf8RyHPAu
p2091
I230
sV5OiNZAaTvKz-dAtHIGm7Kgu
p2092
I2
sVZT-X6uq5-hiA4JFC64kIUQu
p2093
I21
sVAaHXbzxbLyNivuHHcdpGgwu
p2094
I217
sV8RzsGBVrqLWLCE8sOSYQkwu
p2095
I0
sVM6oU3OBf_E6gqlfkLGlStQu
p2096
I7
sVU7fjG9u4iFAg0RaR3j0zNAu
p2097
I38
sVNiKP2TA4n2ywN991Bte14Qu
p2098
I4
sVPBCTrQ8-G3NWiYTbJiifpAu
p2099
I178
sVZQduSjrBcIYjO1d8IaXxVwu
p2100
I41
sV6CIxnHYCfM7D4hGx8WWYGQu
p2101
I21
sVyGhTkVx3O6uZNEQkx5x_Qwu
p2102
I22
sVEfvXF2GNrGSEIZ4ODD29Vwu
p2103
I56
sV1qZxN6IGsWOIOJWTfttwJwu
p2104
I56
sV9JKuE7C9JMPY2KJum6hbbwu
p2105
I18
sVdwiis_5YagRG7Ol8JSH-Igu
p2106
I246
sVfwTcRziQWLR61LDDm_NxYwu
p2107
I36
sVqABKRj1ggJmtvrL9FMFtuAu
p2108
I7
sVKsm_R7lneKDRa0yaUoBp3Au
p2109
I181
sVYwISM44nNmOSeXdsL-qZYwu
p2110
I6
sVfc84xziqvCO__-XlQH6yagu
p2111
I1
sVc6udjafo7ogZESH16qWRywu
p2112
I16
sVPMNbT3Y8KDt7E979AJMyngu
p2113
I16
sVcWg07SD9-PnDUglqtS5owgu
p2114
I0
sVTgXQJsWCTVE4BFijf0kM8gu
p2115
I4
sVxjUOiQhVsKgqIa_99SRHdwu
p2116
I48
sVd1o01mHoY7Yv5hzDZE9VBgu
p2117
I220
sVnDBly08j5URmrHQ2JCbyiwu
p2118
I7
sVj6Ig9V60wygB2QnadP5jqgu
p2119
I0
sVsMZ-Rlmp_gHU5a3mN30Togu
p2120
I4
sVE9rN5N6_39vyBVmqwZDqGwu
p2121
I26
sVLoJyA8uAzEwO1iXEqTI3Qwu
p2122
I19
sVKK_2vxqNug1wQhVo22soQwu
p2123
I1
sV4pi5L3KDxNiYLMQG7rTkdwu
p2124
I38
sVcBG3WD3mKDfZ1BNu7Do50Au
p2125
I10
sVGqJOZhkNwr-_BG_t5AuFLwu
p2126
I19
sVYEyx8t2Okqy8JDWHcF8C9Qu
p2127
I79
sVE0WWNXVze_sfDCbM0oMYvwu
p2128
I7
sVd60Tvvuy-7o9LmzwF12nyAu
p2129
I37
sVUsULgP4bKA8RMzs8dQzcsAu
p2130
I7
sVBc94u79bFmGaUH3coZhBHQu
p2131
I12
sV7Ks2StcBS5H5htLE8w340Qu
p2132
I18
sVsQ5wPNZJ6kN2zosRdovAsgu
p2133
I18
sV59JsZqiwc_yDEk1l6xhnKAu
p2134
I53
sVb6CyeouS97Y8YSTi8T2xRgu
p2135
I10
sVA2FF3rbujS4O760_400DVQu
p2136
I9
sVsNEdk8Qy-n5yNdBLHRuFQAu
p2137
I0
sVlD-p9WrzgbE3dWcTBOYtIQu
p2138
I130
sVp2idPmL-9tnnBcELYKdIaQu
p2139
I18
sVD30Zx1lFfgOPsFJDA5WgTAu
p2140
I37
sVxdYphPCFlkk7UD0Gq72rkQu
p2141
I79
sV-eu6RCy7D5mqm69aeELM6wu
p2142
I10
sVyA77gvXdxFViK0mZcSiveAu
p2143
I18
sVmqyH3CqjMufsm5FccDrjLAu
p2144
I7
sVxs_fnNe0hofd7ZOupCjesQu
p2145
I36
sV26wW6FNWdmC23Vz-sjy9Dwu
p2146
I30
sVrotKO3R8h23YbiLFaZ-BLgu
p2147
I7
sVbcnAYXA0axwRwxo5wt287Qu
p2148
I18
sVbaVSiKQRkOOj1FZdc-1Epwu
p2149
I10
sVYk37VAp452K7FwHWd1rrQwu
p2150
I169
sVq8Ommd0Wb4ElMebQRI9qzgu
p2151
I10
sVcl1LMRfak6gR3vqsEzRtHQu
p2152
I122
sVT3yR0xYaj_eibS385G_R-wu
p2153
I10
sV6F-5GaueiVKkRg7LYTCfxQu
p2154
I1
sVtvPrjtCqQu7sZmf1gcuBqgu
p2155
I22
sVDevOUUL0hiC5fpdnsoiAjQu
p2156
I0
sVS9qy8xQiixNauHVAl3JONgu
p2157
I204
sVVONfPEsY8qUO2LSYFI4yRQu
p2158
I18
sVnlmyNqKhcnMtF6_Sd-oxuAu
p2159
I30
sVEx8T_QOlOCbe67ZRfwWa_Au
p2160
I59
sVUCQNrwN4_hHHTWYa8cqe_Qu
p2161
I65
sVQnIm5uXIvBQ8k4FGVSu3CQu
p2162
I248
sVWDeRa1X8B1J4tTtAv47BIAu
p2163
I76
sVhLXeeKq7sdSznNs7W2LKEgu
p2164
I38
sVncFbDwW5V4RfoEkhcAPfBAu
p2165
I7
sV8-mw_aotUGmP0k0s6QKwOAu
p2166
I37
sV8leVoQakIF9OfyikF7Yu5gu
p2167
I18
sVXMwsFSfJLOlYIs3Pe6xdcgu
p2168
I1
sVcFqh0hqxrT3terZlvPh8ggu
p2169
I10
sVjQxxHLXLbFsNYNWNdSjRKQu
p2170
I53
sVZ7sg07ZVZBzuKPZstlX0vgu
p2171
I38
sVKGQu1on15VSK27U0oGtefgu
p2172
I18
sV8UgwN_TM_1mw32nxR6Z3Ywu
p2173
I18
sVhFP7Si9jvdOUmmMesg4ghwu
p2174
I36
sVgDFL_qyyCVcpmdTdCfU_gQu
p2175
I56
sVGJl1qIvyQEs501rfw0hDBgu
p2176
I1
sVej0PfnWbej7xKaLyJg6E-wu
p2177
I16
sVHj8GsWV3454SmqhhK-LCAgu
p2178
I16
sV0dgQa81w5it1PMpGpC_L0Au
p2179
I18
sVakMGLz_YlrolnylagR-1WQu
p2180
I21
sVh6DbdlOieRqalIhOF8K_Bgu
p2181
I234
sV6N1qmSdYxhUsp2ouZDZlGAu
p2182
I35
sVVpL2gVvtB94NJiK5-EPjoQu
p2183
I7
sVLfVLstJpy76p_s5LvN9wswu
p2184
I39
sVCp-PV8rsypbO-xBrQ6KmQgu
p2185
I7
sV1Hmk8poAzXERGSFfP-7OOgu
p2186
I38
sVc7xefzxCtr0ebCL6VR2t7Qu
p2187
I18
sV2qkHJ1oqE01DovTqpqCC0Qu
p2188
I18
sVBxLlwLX9iT1A59F9axrjSwu
p2189
I16
sV6cqaHBhtZvUuFzb00InbeQu
p2190
I1
sVB4K5ruafil9RSDiTIL-1Bwu
p2191
I7
sVIC_herUwBVQ1mt8Pf1to3wu
p2192
I7
sVhn5bgMW0Zy3MNdFNw_tjOgu
p2193
I39
sVoGR0GPIbYOitJaa-VsvaFQu
p2194
I130
sVg4uw_h8-3HKyZm6jES85egu
p2195
I10
sVhRdhlyNVtVvcf7oLn2J1Xwu
p2196
I1
sVhgzGSMl2m3ZpbVMnnbHJAQu
p2197
I1
sVsYe1DZYWnAHVfEzWlLkaAwu
p2198
I18
sVmAuBHENS_DeFCQqrJC_UxAu
p2199
I35
sVXK3jzcg2pibsHm6nlCn08wu
p2200
I18
sVSInpm1Y38JVB0DHwLKx1yQu
p2201
I39
sVThdoCyMkTcz6qmXQDwj8WQu
p2202
I0
sVBWo7K_QGZCO2PG1osiwRuQu
p2203
I30
sV43sA9Kvf-EngIzmBgztSOAu
p2204
I38
sVVJzKauZ_3WJ6Dw0v0LWq8gu
p2205
I36
sVmFhQOr7NPhGwx4GnnxTFawu
p2206
I27
sV8fTTvS499XCz4oP49kxq8Au
p2207
I39
sVRClIAr-yokjP3Jtw51iD-wu
p2208
I223
sV_kIJcnfJKdo_NwxN0dxZlQu
p2209
I19
sVyT_7mYWBJdV0RFgI6rmnCAu
p2210
I2
sVlmiDCrmas8TxRsbIGZX9Pgu
p2211
I7
sVZmSKVX7q0GVXxmVFUcqGDQu
p2212
I22
sVUV6WkH0W-OC_OVEeN9GD3gu
p2213
I21
sV2tRyExv67j1X8LaO581Wjgu
p2214
I53
sVuuQi2pz-r-dEGCF_VHq-Tgu
p2215
I18
sVnDP1Ry-y5x-lZeOwULY88wu
p2216
I137
sVt1yaeT8NRLZtNGfAMu8hWQu
p2217
I183
sVP4XRTKPDREmWvPIg81CzUQu
p2218
I0
sVFuDlYMar9QLhsS331Ppgngu
p2219
I6
sV-txH2zJSBZQHO6RWvoWXuQu
p2220
I7
sVnYa0GRbjizzzKoVOm9-lsQu
p2221
I10
sVUKUcz891pYT5JEZkJjqO4wu
p2222
I0
sV0fWyq8bc9TYp7WAgYh2CeAu
p2223
I10
sV1fERJYlHjZx-dn7NMrOKvgu
p2224
I21
sV7RMLKkeSYXsYmnwTCOze9gu
p2225
I250
sVF82JoyU1Y5yFuSeKfGxoAAu
p2226
I190
sV0tYlK-FieQXAdmTQ9DWTbAu
p2227
I30
sVBsPxyog2Q55Imu-5Ed-Gmgu
p2228
I28
sVNbg7f3pzwZY9frPSDHgM6Qu
p2229
I39
sVhwB4sfkn9oKhFcoIOj66Vgu
p2230
I18
sVtTQwXGXwGrcEnrJ4gziGAgu
p2231
I18
sVIldNKx5L8unlcv3LBSs-_gu
p2232
I251
sVYfqrn--hT3xnYDmbQ4EnZwu
p2233
I252
sV8tQtnvhvYIXcAen9LulAJAu
p2234
I9
sVJgDkCER12uiv4lbpmkZ9VAu
p2235
I7
sVglRhDPETR9sI7-lvGzjPPAu
p2236
I45
sVzU8tZqjC5YhkWebuREb0RQu
p2237
I36
sViC-kXC7m0XKdbntAIBA46wu
p2238
I16
sVUhEDbYWrmHBxt8_6Htm5qgu
p2239
I34
sVHKqLjjFGj4Sqi2VX83d2Dgu
p2240
I39
sVk3yuawPEvzlAJPj_RMO0MQu
p2241
I30
sVF9T6m1YdRFreyKDufcyoOQu
p2242
I2
sVeRhqwWWYneA3Wr_WYbmVGwu
p2243
I7
sVZP-lKmBQAN4HIdLP4vDK6gu
p2244
I18
sV4UUIpbOTPmu43wuC2aSGkgu
p2245
I7
sVxwTe8xDNEuQGUzk9peGnVQu
p2246
I18
sVkDd9xHsUOg_HYOvxkQcnXAu
p2247
I235
sVaJGbFSkf6zCBbadpcD5uowu
p2248
I10
sVSHlkGMta-B3lXzlQBtrUvgu
p2249
I18
sV7l3GZt8gPGfRgqAHRqhu8Qu
p2250
I41
sVjt0M38z-ID2ja3nILJ2bXwu
p2251
I37
sVN7lSh49zQ13sG3Jpa9E6cwu
p2252
I199
sVKoplwVOqt46ON4MWnTb_4gu
p2253
I36
sVYnU-qgATIaFB0EZy8KpuuQu
p2254
I22
sVgQm2p1gmBPQ4f1sHxgRlbwu
p2255
I36
sVMPRRpCrzvYA9jbNVEcMDDAu
p2256
I12
sVEMgHb1vT7aSrEp6QCjXxMQu
p2257
I21
sVpFjZKIA0NUf9Daiv5tHoQwu
p2258
I39
sVBEcT2wCP-G0LfkKZSlYdzwu
p2259
I7
sVVhI6xyylcAxi0wOy2HOX3wu
p2260
I21
sVJCW7sPdi626OdRLrRN9ziwu
p2261
I56
sVkBM2vv1yEDqByi5FvucHYwu
p2262
I16
sV25QJFdXmXGSvRhU8m33_Iwu
p2263
I53
sVQI8ZJIGBemVm3oJ3fX4wYAu
p2264
I10
sV9Ysj3f3tI3m5QRDxvQAIKwu
p2265
I174
sVSjd_ga_kdYbaQTFF5iAgNgu
p2266
I18
sVkE2Dw1sKMeaDOpyZNVQKJQu
p2267
I53
sVXLO0gE99ur2fv7VmPBJb3gu
p2268
I34
sVcp33mMnE7wgUM_Q8atDKngu
p2269
I113
sVyoDfjwyLi8jfyghj-Z7IWwu
p2270
I162
sVFCCH1FtzoBVY8mXLWif9-Qu
p2271
I10
sVyiHkeSEzTZWLnWUsgSUvDAu
p2272
I39
sV01pI8lIEwSAzzfPxUby-ywu
p2273
I16
sV-WVTKM4JvMdYz7YG1i-H1Qu
p2274
I18
sVwvnRlMi6pY3MExPsQp3ZXAu
p2275
I76
sVyEzlmDFbVrTI9R4cZTaUrwu
p2276
I19
sVBN36guOBWF5LjzoEvWExtQu
p2277
I56
sV3ONPPazUH-Q3XblYJIaA1Au
p2278
I100
sVIP_80RkCFvrzVuONT3TOqgu
p2279
I10
sVthdVzCfKx-DV0zYWqId3pwu
p2280
I7
sV4TZARz8AjNWfukK2UfZitAu
p2281
I76
sVB7McDYDrf4R814OT3xwInQu
p2282
I18
sV7aQvAhgpdXqkTQEp8b8Szwu
p2283
I7
sV5fPTQulecWNd_j787MFEKAu
p2284
I16
sV2uz3B-11DieFlELzqUCAlwu
p2285
I7
sVqASPib1Z8ft8e96dtbh66wu
p2286
I7
sVQOHry7dxjouXSbFjEH9hqgu
p2287
I0
sVJRrBSRmbki_O0vioONswUAu
p2288
I38
sVgm-eNehZVMLSydD31cPq4Qu
p2289
I34
sVKA-GVrDP0huPS7zs5tmS1Qu
p2290
I18
sVnQ12m3cBkcR64gBsM_OrjAu
p2291
I35
sV5GSUi1KNPflLfngdV9lXEAu
p2292
I187
sVSLvZfeCztX7QaNbJs_7ikQu
p2293
I253
sVTGVtVYup344Y9fGy3QrjsAu
p2294
I18
sVTCR4bKjBXaI8qS_QK3MO1wu
p2295
I30
sVLjjm6q7GpfmerjcVaOC17Qu
p2296
I1
sVLLuIG8RgsdU5NMS3KGYkQQu
p2297
I39
sVfBKxTDmCQaLEnyW5DhMQVQu
p2298
I95
sV1ylYrKcGNA8MDkhNBTjHMAu
p2299
I7
sVLKnsv1meIthvgdky00qkQAu
p2300
I39
sVGrSixRnGIxNUJ1Cn5DNX9Au
p2301
I7
sVMTu3hVSZkK8nkPhqT2FIDQu
p2302
I18
sVrL3dPeKDTybG_ct9OCXGAAu
p2303
I40
sVzJurvQwVqI5ripRGQaTIlAu
p2304
I18
sVfslBwYla6-X3YRVJCRNQvQu
p2305
I18
sV6WrOT1dj6sigl_voiwQ7HAu
p2306
I7
sVhHimxg0RrR4--yOwj0mOGgu
p2307
I37
sV8khFZf-u8BFVkNWH4wN94gu
p2308
I38
sVO14gmi3Qpstz1lQS0nLpLAu
p2309
I160
sVPk5T0OFCbl8mIKkKYyglWQu
p2310
I7
sVdON_lymZAFx3jmq5yVobBgu
p2311
I16
sV4MnVm1LWQ2ZXso4ORe_fZAu
p2312
I22
sV4BZbyy12azmRsZErsiTWwQu
p2313
I140
sVr1jeWJCyZ9xLr-ECuMnQPwu
p2314
I18
sVH2Mq8i0PFzxC5IFylf9g4Qu
p2315
I18
sV2h0A-NirfNl2p2SquFWYHQu
p2316
I7
sVjfL9EqM4nSTMV7mt_i2nuQu
p2317
I10
sVo7sNqbEsMrztrVV_3RU4Hwu
p2318
I10
sVN2rRTG5sfrOtLTn9djZ5mwu
p2319
I115
sVYPmQEVEFZ0EwiDNJFVo2Sgu
p2320
I39
sVdytEzCAoJl4LAMWFQIYPpAu
p2321
I35
sVnWouNfZD3Pw08RYizxkqcAu
p2322
I7
sVCSyRCBpSyeNGPy7fAGWwtgu
p2323
I18
sVzYgSDyEHVcMLRL1LLms7IAu
p2324
I39
sVGwzz8Z8-Xdfsum3aBOI9bwu
p2325
I71
sVIPVQ9aObQap81orMov_MwAu
p2326
I18
sVJPwN2CgjNap0mkIvXx9vOgu
p2327
I44
sVP6EBeMvWH6R66FptYfxEvAu
p2328
I1
sVQ-haNBm8KXtWg60LJAK2tQu
p2329
I79
sV2Uh-8nt_opzgjUgggWZraAu
p2330
I36
sVZm08wcep2F-nRTHRyR8mpwu
p2331
I251
sVFktbKOzznpoKTNXMVtc8EAu
p2332
I7
sV61CTpBsZmaYbBO0qOZzROAu
p2333
I19
sVuTiWpbZ-HJcAo4uUpBw-oQu
p2334
I269
sVemsiinAn0aqY4uTK9QFrVgu
p2335
I34
sVpTw9Ya2A60V4BR0d77tR7gu
p2336
I5
sVom64hB61Q9M8z98qJK9tfQu
p2337
I19
sVkr7GcAXv7F7cAUVWqEiOXgu
p2338
I38
sVMLNXzph9nlCXGiSuv5G5Ygu
p2339
I7
sV2s8IB1FGuu4oyO8p2XLTOwu
p2340
I21
sVFt-i74HyCpMDi3R7EDAUWAu
p2341
I103
sVQD_LBiPYYI8JO_Wct6_WQwu
p2342
I0
sVd8geeKYzPeGp8uSP8C6PTwu
p2343
I80
sV0H9ne5frm1GjO6TjUwbxlwu
p2344
I7
sVtCKN_ILGifNvpJMENTXOkQu
p2345
I18
sVgu0Jyzfq0c6rXbCYL2UzoQu
p2346
I235
sVSpP5SyUZ3F5ITqOqn0f3DQu
p2347
I21
sVqQb4pg5uqvjMOfGPWbIkeQu
p2348
I0
sV8j5xdB7WhWINGoO53zIbUQu
p2349
I10
sVBU070HYdGHGKYzxMU3FJ7gu
p2350
I0
sVAZuSSh8xMwLtoapGa02WZQu
p2351
I2
sVX5T0BycZ_h_z7fy7jzsAawu
p2352
I53
sV3b89RlfPHGv5AyieaclKGgu
p2353
I133
sVg6rlp5No6GjEDXkrjvg1kQu
p2354
I7
sVHFIuj45MwNx-cJkTamazSQu
p2355
I215
sVJ2JfCaiaZku8HgfNceU8Rgu
p2356
I2
sV0SA6oZiGH3hEJdjFtEqx9Qu
p2357
I18
sVf6q_pSwkHMNbRusrX5Pkfgu
p2358
I2
sVDIhY93zwQZy_RUg64t77SQu
p2359
I38
sVzjX3Bph1uSWtrhaLCuyC2gu
p2360
I35
sVgXQ3peDz-H8mFZO_U4ys3wu
p2361
I22
sVY87ZZCg10lZgx5NO0uqqSwu
p2362
I252
sVk6RdAOkc1F3vFm7PNj0-xQu
p2363
I12
sVHUIvjNdwRHthxFhLyadb0Au
p2364
I10
sVbNdlR6bzOkOftBW7zDwxXQu
p2365
I16
sVfn1TYXMG0_sE28xzMTHsAQu
p2366
I35
sV9J21JEtHPNkXi0mJBCt5kAu
p2367
I28
sVWE3AWk2O41X0kTc5t0mthAu
p2368
I18
sVmP1tArLg-SrDmsW0ch8NPwu
p2369
I51
sVsQTvI2N_WT5m60ZUbTMCMQu
p2370
I7
sVSVw1pW_7t0YmnvyAEOovoAu
p2371
I0
sVk1J9kp1Kw2eDSQLVv84P3Au
p2372
I10
sVGZFiCRwm-bVauSRtTKhb4gu
p2373
I257
sVBHph9QBeSbNJh6eTj2ukhgu
p2374
I35
sVtHz9cWxwSfcP4qRaPIHvwwu
p2375
I7
sVjOTG3TdprDkQO_V1asGF4wu
p2376
I37
sVQ43j4rd_K0YEjGAb7qB8MAu
p2377
I18
sVOgYjuf9iLv4yK8hPiQ62uQu
p2378
I10
sVgO5qs-ilS2-NfIqa1P5_uAu
p2379
I18
sVxFG4Ca2HHmbxDTkMlmHnjQu
p2380
I7
sVTOAn9VLmBZJEvzerHgha6Qu
p2381
I36
sV4GBlFEDgO3BTiIVZCS_21wu
p2382
I0
sVUofojaVIT3m8qPXHl9J0nwu
p2383
I244
sVdgNeLSvcN_4llzZ-m-9cgAu
p2384
I34
sV_qQJEA45k_E6EGE7vuzUDAu
p2385
I10
sV8EaO99Q3E_SS8KzOR1rFrAu
p2386
I10
sV9PiM3lRzswoAe3qV6wtqJgu
p2387
I36
sVAuWUGOApBDh2vM0OKdXRbwu
p2388
I56
sVP3BIYP3-onZ8FuA_4usY6Qu
p2389
I18
sVSCdlRzRSZcj6NzhtzynaYwu
p2390
I259
sVz5_oZaSu49KcGmQ04ksoUAu
p2391
I16
sVhPdbCW5moxIh88b43dwY7Au
p2392
I195
sVb927p9pWxM9EYoNr_6PxYQu
p2393
I0
sVhCPF6c6pCpL-sCHh5FfHwwu
p2394
I9
sV1MyXsAhZK35A6EAr4reLCAu
p2395
I10
sVnc3cqVN0UuB3m50-CcMftwu
p2396
I7
sV9IAMTjvhfHMoCqggUic5xAu
p2397
I82
sVM6kAQ2anG2c8-fcoHEC_1Au
p2398
I37
sVNt77Zlby0TH1Cw0E6aDVwAu
p2399
I21
sV89ukvrRTIRGPTwmJAnPZQgu
p2400
I51
sVoHn52UJAeJQJxDOob4FEAwu
p2401
I16
sVtapowpemeuVdBOB8NFN3Qwu
p2402
I260
sVmbgppRfYH0kC7p7X2VPcGgu
p2403
I6
sV6VmZJ5HNhFn7F3CAo9QWTwu
p2404
I94
sVUf2wd7-KVc9lGPZS-Vxtygu
p2405
I38
sVrGF5NupL0BxDcc8-4pWYhgu
p2406
I221
sVhCrB2HAcKpBViFmfhj_xRQu
p2407
I16
sVZrQFr1c6kX8JEWElqQQgCAu
p2408
I59
sVoORHh30ptSk_5v7UBBWzwAu
p2409
I39
sVHFTmwmRYMmNnwpJ6c7077gu
p2410
I39
sVqeKzg6czlaZY8Qp7rPG3aQu
p2411
I16
sVP4vrSxH8btrMfEZ9VP5Dmwu
p2412
I0
sVuNtNvaXxR5z5UO7frcThNgu
p2413
I0
sV_aguQTUp7kMlWhWr2mojdAu
p2414
I37
sVUM95OVPBnI_tz77hFpciegu
p2415
I0
sVLaas9Ip1BoMGMlli1K4XcQu
p2416
I38
sVcFoiVWF42HSXQEtqxDvdWQu
p2417
I4
sVZ-fvuSqI5SSiZUksPJ_QiQu
p2418
I56
sVZ1lPtIHU7bRoIvuVa01H5wu
p2419
I6
sVk6i4uy9ghvh55DzJiCWgWgu
p2420
I39
sVAZ8NDHmLWdZGzvMtZXzjkAu
p2421
I10
sVoSeZjRZ4fW1jRBqCLbXw8Au
p2422
I38
sVaOFGoRqStaoxiTnnN0liWQu
p2423
I153
sVt5oluA_-GZ6ykAjbSSngOAu
p2424
I37
sVmha1Xd0asQfPeETU9Hx3vwu
p2425
I0
sVhtQ5cdzlNVXB04zfdyvowQu
p2426
I39
sVD3ERNOMC7BsrZFalhF98RQu
p2427
I0
sVFBeskxMa7mBMEKZGJ4Rl3gu
p2428
I54
sVDphi7UucZ8dJTVWAmFJlJgu
p2429
I257
sVIN-XEcGriS0OOtNZJ6eJQAu
p2430
I16
sV_r8vGOF3c-ogwC_WgKQtIQu
p2431
I10
sVliiYhDAP64C8uLyixBDWdgu
p2432
I7
sV_-Zrzf2QYiw4KHugUTXNYQu
p2433
I18
sVTs367xA-JqA4s13qY0awbgu
p2434
I38
sVPVfj1GRD3l_YakchYoTyNwu
p2435
I18
sVNFZLYA8V7jIVTev_qJW1ewu
p2436
I21
sVA3r8QWYpddabr6ug8s_IwAu
p2437
I28
sVHhzIDj2KQQw7Kr6yW1BD1wu
p2438
I41
sV1Gyw3Y6Xs9PZFrA9OjtsfAu
p2439
I0
sVwEwU88bt18BUf7DhHDRbHwu
p2440
I18
sVQSQeU6bDea42m6yH_pOQ8Au
p2441
I41
sVGzOZ2iuyzT3cwYk49Vb8dAu
p2442
I208
sVxNOOF142vmZEvASQ1g2QSQu
p2443
I10
sVDMtlC2TpVEimIn0D07HnUAu
p2444
I237
sVQ0eGJ635u79UgxOIUi8NLQu
p2445
I36
sVJ92bzxYVmyoLHULzh9xNCAu
p2446
I130
sVQiLOh5KHp81eiju-n-z1Ngu
p2447
I261
sV6TE8eJzCmfxGE0U3GZNz4gu
p2448
I0
sVjXp0eFDh_LNO8JfcGlV3pwu
p2449
I173
sVw4dgIzMwwZvKsHaC47Ox3Au
p2450
I18
sV-UUzfpbkA4iQLC6VbnIgaAu
p2451
I262
sVbN2ZXWEaImVW5tyiujDLRAu
p2452
I36
sV_8eGLKjVpGK_mxwM8mlOgAu
p2453
I0
sVRyzzI97Vq4IelbSp5wwGtgu
p2454
I18
sV4zVoaTJx2Ik1tHYRiIddXQu
p2455
I21
sVC3GyFbd68m8CZ6h1PxOIwQu
p2456
I0
sV62vBVY9KoZ4cpSJvbFVt_gu
p2457
I19
sV0_TkU3ASPMjyPt5RgWJQ6gu
p2458
I18
sVNM09MXHEGiyK-cjyk1wiIgu
p2459
I19
sVYWBuX2RBbwhYK1jGdZttJAu
p2460
I10
sVkbu2H1mxth20B0L7_35jLAu
p2461
I10
sV6yTkDWCDGGH_5-Pr165WUgu
p2462
I39
sVCapf_zG28-3Kx68BegCyAAu
p2463
I0
sVlr6c11Xnn77XlsZrMe7D4Au
p2464
I240
sVTyi5MvquA5Hbf4t2WLoDcQu
p2465
I10
sVuZyzPG8Gkjwld9fHpPBd1gu
p2466
I58
sVAivhZeFM9EivrtQTc0iz_Au
p2467
I18
sVtqI9NInrAqQMY_5D1jtqxwu
p2468
I34
sV2NpYVMsQeyg7rIOkSHvP6Qu
p2469
I0
sVo6hksardqzx7jZwiNxoRDgu
p2470
I35
sVnlae8971SGEdWqbP5gEYIgu
p2471
I2
sVoMDSmhe72hjxoR3EAj6sXQu
p2472
I245
sVLp_Ykqfbv5Q-oyGYlMGJRgu
p2473
I7
sVUt8dgpxKahmC_9v5PbYOmwu
p2474
I30
sV6kmu0mYbdpMIOZ6Y0eVsxgu
p2475
I7
sV3gIfcQq5KxAegwCPXc83cQu
p2476
I7
sVcJ8sSqRh7CKpNpQaBB2uSgu
p2477
I19
sVQjYzp8ko7w010fEQ6DWTnAu
p2478
I56
sVYggBHQcOb7Nfr49QPgoSegu
p2479
I39
sVAPLIPfq1Rf8QyhHHk2uAyAu
p2480
I7
sV9yfH2b8sndVh3X9HY2SAAAu
p2481
I7
sVm7vtKWpZ9wdEQ95wJxrMrgu
p2482
I247
sVrLW8CxLbYqh-T8A6p6LQFgu
p2483
I39
sV2hXL2ExBsgjJNpm6BJy0lgu
p2484
I7
sV63UaVdLeICrUy-mI97LpUAu
p2485
I10
sV3VIRjR2V29TOaI9u64hMigu
p2486
I7
sVMRIPbO8Vqx36eLdKmTg8awu
p2487
I41
sVczsmQRXhXy-S40cKpEk0Lgu
p2488
I28
sVfSRMo1gMhj89V_Av3KcCLQu
p2489
I10
sVhRy9-3-MT2_g9EBUU_Is_Au
p2490
I1
sV0rc3bZdU-WfIm0At5T7HgAu
p2491
I9
sVJTwQpwYexzuEkYY53XHdVQu
p2492
I18
sVpZZoNEg9DhlQCpbwUm9NQwu
p2493
I21
sV79LOudEmAcxSYVA1SF5Aygu
p2494
I239
sV81hpuEdYu2C4hp6oL7EPZwu
p2495
I7
sVWRVrxPlDOCFsKmzhjdGqxgu
p2496
I73
sVrV-B4sIzTbnvsYZZi2Nyrwu
p2497
I18
sVBa-tIR3a8hhwIk-y_hVzFgu
p2498
I19
sVS5zDAjR2JDPU6ZLWwVTJ3Au
p2499
I10
sVnl4s4jCbuLTl2hL2dL1sKgu
p2500
I18
sVJvg0Iv2a67hjZqVdyF4aAQu
p2501
I41
sViJUVamUkqL6VfEMfyQoujwu
p2502
I56
sVcUudtsHl6XFGyekzjZCUqQu
p2503
I253
sVGHHJi9AuaEPCZ8vvtQG3sAu
p2504
I18
sVFS4FKnG2CDmIIL0trcZoNwu
p2505
I9
sVs0Pa4r5t40Rko_IuNid7YAu
p2506
I30
sVv2UqlUHA8d3lgTIby0CCFQu
p2507
I7
sVsc_Kcz2apQ1IJa9moO8qvAu
p2508
I16
sVtECi_SRfBmurJfXmDR63WAu
p2509
I16
sVaJfAJPoynVj-CBLGaXE22Au
p2510
I222
sVfH9OSIlijo9Obp8ZDq8rBgu
p2511
I0
sVzv0xza_2RteC7J7Mj7-FtAu
p2512
I35
sVAhgwtvYd9guBRs6AZ3Vf5wu
p2513
I2
sVxU0Z7gKPCG4cSi4n9mYjPQu
p2514
I39
sVzIU9GnCjs-n8LBz2EQ64Ogu
p2515
I10
sVAaafbip-U2aeTXbvinBLiAu
p2516
I7
sVCeEdhuga6NAu1BE46Aeodgu
p2517
I6
sVMgm6xZjahS3HD7qqOyGtbQu
p2518
I0
sVsIVqfGB2Q-p_Zmb87CdLcAu
p2519
I4
sVRY6ocH_WKWjTaKXNiY8opQu
p2520
I39
sVcZEVW_x0NKI69Xm55tknBgu
p2521
I22
sVFvtPughae10_YeNVisMEuQu
p2522
I10
sVlL5HiCJ4i3plI-M_3E-nJQu
p2523
I170
sV55-K5KXdbrUGQCNF8z3hHQu
p2524
I7
sVhW2XQMGHy5_TW7dnijZR6Qu
p2525
I0
sVUm8eFxZBCxCR4FNGO0DeEAu
p2526
I19
sVbrVALNYhCaLUaQljGLGW4Qu
p2527
I18
sVoJ2YeNhM_lxJitWYZxgQXwu
p2528
I30
sVGll5xT6Gc-TpxI31k4H0rAu
p2529
I38
sVmRjDdjbsG3bJoEYUAHAalQu
p2530
I10
sVBq4o8L-bmu58H42WM3iCqwu
p2531
I18
sVTLj3XaclA7V4ldJ5yNP-9Qu
p2532
I18
sVqrdkZvmXPd4Ts20SmUBRQQu
p2533
I0
sV1uhipArheEVbwWyoAbKAGgu
p2534
I18
sVqK6qbqXcZDn0fz8Dr5Ex8wu
p2535
I237
sV5iVA1e-VmIDhFKW_afXCVAu
p2536
I21
sV1EThs7Vakny7bGBRQk6x2wu
p2537
I2
sVlG6Q5OvamVHUSk9MPE6Q4Au
p2538
I35
sVYik3_gi3e2F5WsKOFm14QQu
p2539
I18
sV-GNcVLtPu1QlJ07cMRe4zwu
p2540
I245
sVlJwkB4mnLdHdgeUtJsVGsQu
p2541
I140
sVK0U0Hp6rgXHrYCG4jpPT8wu
p2542
I9
sVBiDA7uVJ5igMCsp4ZfpCpQu
p2543
I7
sVaL-H5HeZd7R6iCWYldHEnAu
p2544
I19
sVqttGXy09w-5gwsUYRb-z1Qu
p2545
I201
sVC0WhCeFcuuBgKEHrQlyP1Au
p2546
I18
sV48DXrpTDt2OOpLt-9rsFoAu
p2547
I56
sV_8o_CVDQNWx3QluULdaTdQu
p2548
I18
sVeWb3LTlYzRGrP4DiQjHXcAu
p2549
I0
sVJ_zxvVNx2V4fa8kPHvupSwu
p2550
I18
sVa89BrWkaBblvdBGdFy1YUgu
p2551
I16
sVkj5O3qxSmXlPIWxiD9Evdwu
p2552
I19
sVXHhvOeDw9PmQyBRpl0lFcwu
p2553
I22
sV_uWc9mBsSXz1gQw3rf-1fgu
p2554
I56
sVuR_piR0tkmzRXDXAw3loLwu
p2555
I28
sVr2KPiKG0S3M3w9FvQbm_lwu
p2556
I37
sVy5_vrqIylhXMrejM_-x_vAu
p2557
I7
sVtIjGowPKmnMAz8WwSBngCgu
p2558
I30
sVsGZpZoEKwQVNPRhG3OjudQu
p2559
I37
sVuOdEsOgPW48Ky4j8U8CEcwu
p2560
I7
sV_5EJuVF8Cz5Qn2d4DnbC0Au
p2561
I10
sVkSyETvyqGhEVwNWbCrIX7Qu
p2562
I1
sVwxapwb1gulmqGVCNxVWjBQu
p2563
I2
sVhVkQbDk61hmIi5iVm3IkZwu
p2564
I18
sVENJpS6i-s9hWiQg9ZGwevQu
p2565
I1
sV5mnhUiRWi-q6nX7TkicE2Au
p2566
I22
sVEXZrHtmzdtDHtH9MPNEhkwu
p2567
I4
sVl5upkLok78p-NQN_3uurrAu
p2568
I35
sVqb3lltSzKhTSL2jbc9HqyQu
p2569
I7
sVWDI8IXRi6oST4lV1Wd_lyAu
p2570
I39
sVrHG-s9FSI6i4T__Ee0F-SQu
p2571
I39
sVk2n8CdqJhZqZT_w36rzangu
p2572
I18
sVZfoYXGuypMTzvXuqHsqqAAu
p2573
I30
sVEVN484M7GZxhVpp61JgQBAu
p2574
I37
sVbucwbyP1wOxRJe_RwmmAqwu
p2575
I0
sVXfY8jenAAfWhJZ6zcsgzGAu
p2576
I18
sVzHgmWv6NbwZepUSqA_FlLwu
p2577
I19
sVzcaCmSNPkeBa7PCK5V31WQu
p2578
I39
sVuCfdp7AH45qanhjzWhYZswu
p2579
I124
sVaVQbGeZVdm2kQbXcd14fqAu
p2580
I10
sVv7eZC_myKtZ0TFodMLrRJQu
p2581
I37
sVd95On_QNeQPr01pRNzHa5wu
p2582
I7
sV3CKkDPMS9Uft43gB8_iBIwu
p2583
I53
sVMCKpObxBr4qzsxCWvAbbIAu
p2584
I1
sVhyUC687R-bhV6dy2Vvio1gu
p2585
I36
sVXFLeKAsj3UKv5VPoIQjdIwu
p2586
I186
sVW-ef8QaX8OLJVCFLD_Q-8gu
p2587
I18
sVs-t5VMN7qV5ZVL8Wim_7sQu
p2588
I18
sVTHYIqfnLV54VZ_v2hCfq2Qu
p2589
I18
sVEJVwqmV-yBdN9gt3jW6IwAu
p2590
I39
sVdRfuAF1X90yB-B8jTaqutgu
p2591
I56
sVeRtuJOuHBXoJ3GRlAe_eTwu
p2592
I23
sVV758b0OO8E1LxuKRrGbNFwu
p2593
I41
sVH7OGq5Upv2FwuSORESv6Kgu
p2594
I16
sVDcv7XF8K_QNKaJJscyQczQu
p2595
I12
sVZgp9T6IOVFOozrWDw_mUGQu
p2596
I48
sVf9gv8YujYFwyBXuoSA3NlQu
p2597
I0
sVVwVAEyXGfGfVDVAFS9paCAu
p2598
I2
sVmym5tXZoZCbuPCYQzI5Ysgu
p2599
I7
sVEKUTzT9CK02SFYmxT_DaCAu
p2600
I205
sVGAEHo1uslNOouKy5k_v3tgu
p2601
I18
sVXb0m7b7YlNzZERpiSsOZ3gu
p2602
I227
sVQlVi4pRuYTOoLMKWS0DvEgu
p2603
I35
sVdoMDzniAOl1AaS34G63daAu
p2604
I12
sVHaDEZSNSTNFmq6laVB6ZMQu
p2605
I37
sVvb33gUcOIIuYxp-U232jvQu
p2606
I10
sVbzJErDpsGdM2c11Gb16-tQu
p2607
I35
sVWgQwZu0ECAjavpbUlMRBeAu
p2608
I0
sV-bO7P1OtJBKN3rlGpolaFAu
p2609
I18
sVgcl-qCpouRKl6cIc_c_fqAu
p2610
I38
sVS5hUJTLbnCxidsR5IRsKzQu
p2611
I22
sVgM0sIR19KRNp7Rl5KK1mZgu
p2612
I22
sVfJTq39fyj0EPMydqKwz-Rwu
p2613
I39
sVA9x6WO4DJuHzT2U_fT9Jhwu
p2614
I175
sV0RrgEy-Yk1kWvAXEbOG5Nwu
p2615
I35
sVAcErO3j0GFTXbdJHbuD2-Qu
p2616
I10
sVZ02XdD0muEz2FFQKPERMYQu
p2617
I18
sVfU45MzwkF1D6HC00ZzZnsAu
p2618
I0
sV6_xllPHnU3sqk-eyyR4JDwu
p2619
I16
sVh88uEsrXNPSf87XqFypzLAu
p2620
I18
sVlrQfSNnNMw3C90WowGVUnQu
p2621
I1
sV90a6z--_CUrl84aCzZyPsgu
p2622
I7
sVgEnU4BqTK-4abqYl_Ljjfgu
p2623
I19
sV66CvWYdsXZcInKUGw62BwAu
p2624
I39
sVIO3AsR6cdMto7VCwfPzf2wu
p2625
I200
sVLnoQBXbZae3NF6_a4mVtJQu
p2626
I16
sVbwmXfjwrogAaGqV33kSVpQu
p2627
I7
sV7o7vuRkJtnnipRWw3kft8Qu
p2628
I1
sV9bfryXyHC9-hZyuibVWQlwu
p2629
I0
sVihZ9UuuFI_UOySRqr3KFGgu
p2630
I37
sVp3ruAJoMYmtKYr_r_lXlOAu
p2631
I0
sVhV71EB_6WkwgUsoOEVfzjwu
p2632
I9
sVSH7jHJXak-R7-6zj5KKvrgu
p2633
I18
sVLJPvRgTZWHlwpaYBauOOkwu
p2634
I56
sVnxVAs0ivaOgupWvj9wJDOwu
p2635
I18
sV8Y5ETV2Xf91biKj_sajB2Au
p2636
I147
sVNtxl5G4Cr1Fo-y8e84YUugu
p2637
I36
sVzwc3v1E7KNQh0FK9z5diQgu
p2638
I39
sVoy6fdscGSXY2gzRqF9pZxgu
p2639
I7
sVVH1WbmbrUvgvSWQr68QA6gu
p2640
I30
sVNqmtQzXNDlZ8fyklc55wjAu
p2641
I134
sVJQsyLbRcUGM1Z4zYrI3nOQu
p2642
I171
sVFY3lSrqzMAyk48k5tGMyrwu
p2643
I18
sVgq_G5VCDziyEV2-bzGuqzwu
p2644
I7
sV4YreLEqgAJrg3dgPtKLuQwu
p2645
I168
sVTBi-83lYEqTIM0pK9EAV-Au
p2646
I18
sViU14TVKOsIdWYQLF7agLBAu
p2647
I121
sVuqSLJMoKECmOiwjOrBYoewu
p2648
I9
sVMwAM4Nhmm_U827ijnGugLQu
p2649
I232
sV9jpNSjHDWCU6yliX213nAgu
p2650
I0
sV-abQU9iEfPDWStG1coC4_Qu
p2651
I7
sV-VAF4FC-WKd39_t_RV8XdAu
p2652
I7
sVHy8FHZmJIRP-WNMjQZqeMwu
p2653
I19
sV7-ly4LI9XWLXkFiM2vHxrwu
p2654
I7
sV3dPeTVuQatCgQeyJgkwKdAu
p2655
I0
sVf4Fq9Z8HaYsh6EJsAaCA2gu
p2656
I2
sVC2ifD_22XcSfUey3fcGlKgu
p2657
I35
sVfr9iXtm1uSQozPm5QmSb1Au
p2658
I41
sVbcvhLHYRdcjo0MHmQnM7ZQu
p2659
I18
sVEtXoy2JEi6OH65_cZAr44gu
p2660
I121
sVrixhxHOKxelohYbi9OukxQu
p2661
I37
sVqGbMtD2MWLkuewfN1SE2IQu
p2662
I264
sVmB91okLrL-nflu3d-viVMQu
p2663
I127
sVh7v_M_0-YVpSVZ2WD7FpAAu
p2664
I7
sVvI438uSLlYYc5tI_hVfb4Qu
p2665
I16
sV31jNGbDFDGna001AcdyfDgu
p2666
I0
sV6q6ZXl8H5Yry2pI0_bOQCQu
p2667
I4
sVrg5pRVVh-mtBjNqKB1N2Tgu
p2668
I22
sVn1h87EmG_HBlp33v3X_QuAu
p2669
I137
sVqyy2X0sjuwcikplzdATfGgu
p2670
I0
sVEJkV29QY_oHwSngQiTj2rQu
p2671
I7
sVXxDif_HRn_5_wyA2-Wk7Mgu
p2672
I4
sV3iuZFgxUFKLxOplkDrFmygu
p2673
I18
sVduOtHUgA7iXzXUuAEIbdwgu
p2674
I2
sVZUUeGcB1GCmZZYimuXrwCQu
p2675
I41
sVXtzSu8tDs_XDVAhO_J1VDwu
p2676
I16
sVRHWm_duEdCgWwtN1fBUkHAu
p2677
I21
sVKfoq607M16S4pKVbPh8Pmgu
p2678
I28
sVje0xJ_qIZfaSXkEQKcnKFwu
p2679
I18
sVDYs-7UH4lhgjvGe4d8huvAu
p2680
I22
sVx1twxs5zWyar_5gOU3dHUwu
p2681
I35
sVffi2s4DOV3RtVBQFkWpRkgu
p2682
I4
sVZPm3H-GRzqWKoEPE6L1prgu
p2683
I51
sV6iQhFgmlmarmm8-IgnTw4wu
p2684
I266
sV2Zd3Xy8hUVmZkNg7RyNjhgu
p2685
I16
sVjqVeTSin5GeRm0ceSg-PBAu
p2686
I7
sV1usJIBBfZRJ39bocPG7HWQu
p2687
I37
sVhJCLSp8OrAO-_Gvv_Mj_Ywu
p2688
I41
sVOqeEFFbXGi6KGg9UeN6AQgu
p2689
I36
sVSHi0ZKtsebge11hV5LfbQwu
p2690
I18
sVlEdz40TpW7k8fYbhlQ4w0gu
p2691
I10
sVgTs3AALeNJhSbVrgamKQygu
p2692
I39
sVZq1J3jo27l5m2ntTZPOSgAu
p2693
I38
sVYQlEY5MSIXUlWdBrP6MFXAu
p2694
I21
sVzulIXCHm9vaRsn7JO888HQu
p2695
I129
sVeNUtaWdbv87nxrFCHlCsjQu
p2696
I12
sV8VGcy_9Pbcn_oa0eCxSGowu
p2697
I4
sVJCfHBL4zGkPjtKVd9hS_Bwu
p2698
I69
sVIM3dEtqBAGA2AVm4d-tH5Qu
p2699
I21
sVgWZldnzDeinTsXTvXsW6bgu
p2700
I0
sVwvsMlpa6U9RV4-_pU4gBJgu
p2701
I198
sVw9FobM_vIS2TH0xU7NPPJAu
p2702
I39
sVKclXHxvaqxQBVyXg0TnzwQu
p2703
I39
sVJ1_dnSaVYi17BoxK00y9AQu
p2704
I21
sVPXIlRKOmcGIEJ_b-VZZOQgu
p2705
I39
sVKnKLN1a2ADfa973DV4lcRAu
p2706
I39
sVqFZkU_iO6KjU-_5BptIu9Au
p2707
I114
sV474gZer4_3IxqOpirild1wu
p2708
I36
sV5_2BuK-IWiuLhZ9VGBRYYwu
p2709
I267
sVZRQdOIIhzrzE6sc3emgM-Qu
p2710
I38
sVma-7afsMYNnQkIGxRwPxdgu
p2711
I76
sV_Rx2iNZzYsLBp03uB27lXQu
p2712
I0
sVktM0f2tVRat9BAfrCLCIbgu
p2713
I35
sV1lyTr0o7H_JcQShFI1UmsQu
p2714
I0
sVFBb9hihH1hCUz-wCQf4iEgu
p2715
I24
sVtiyg_cQaPdUuSG95Xpi_sAu
p2716
I0
sV8AMn6644NmBf96xGO3w6OAu
p2717
I226
sVBKP-vxzZEk6NIyb3a36PCgu
p2718
I135
sVGhKbGM-XIF-nQPfmN05a7Qu
p2719
I1
sVVEIQIyFj-9aAykheNbma1wu
p2720
I1
sVOPStKHloEOVxcBtFgkzh2Au
p2721
I28
sVFVCzJiNoszrUSLCuG9KnOgu
p2722
I10
sVFbwfC_oJpLIbUDjvPju2fAu
p2723
I0
sVA0O7UHxcCJJXIYJDBGT_hQu
p2724
I16
sVGsNB-KVGhlL9uwHMXi6P_wu
p2725
I97
sVeie5IA4dRXcBk4fgv_JHDQu
p2726
I2
sVhpSXX0T80dpiTHeOIphFHAu
p2727
I2
sV9VF522wucngr7m9wzXa5nwu
p2728
I70
sVD2eFbbWmBdiNnL7BUT6IDgu
p2729
I2
sVODhV53XhesCBLJVfGsJGNAu
p2730
I71
sVkkUvJK-Y-Jb7nWjnTRZFVAu
p2731
I0
sVM9VMKsxr5BxyrgVoU5AuWQu
p2732
I220
sVllkm_iXQszkN5DZvmqjNqAu
p2733
I7
sVV6IrZrvfCY2P8JvH7FM-tAu
p2734
I18
sVg-5aOiGQbtlACKsWzb3-1gu
p2735
I19
sVIEFyvGVxFKhYJDyEV5Erogu
p2736
I16
sVNB0XRk-gkRzFtV0BNgS7oAu
p2737
I53
sVzjLikecni9dhh-8vWh0rnQu
p2738
I38
sViFUMK13cyogfcNzBGbZCxAu
p2739
I39
sVSB2l1-OsWL4g6g6vrUHBCwu
p2740
I103
sV8Kwz3qxxtTztx7FOOAOyygu
p2741
I13
sVTheizhfMXhe8zSL2xttY7Au
p2742
I38
sVmyLlIKARGcfV9rU2IwOeqwu
p2743
I268
sV49UVlMwjYXZA7OEvApzwnAu
p2744
I39
sVe1zHLlPRDeUp-NheUI32kgu
p2745
I16
sVSfXcp7C6lzRgYBiNL6zX7wu
p2746
I18
sVL1t8vsdZp2q8JQ5MO6eC0wu
p2747
I255
sVyW4KOqI8fknh_REJw9yBBQu
p2748
I16
sVPhiZFPxJbWBSHJ_z5EKCpQu
p2749
I7
sVsFOh_8x3Vv2KgyuTlFHNeAu
p2750
I1
sV7Ki1_Yo8LDIGyCGPQpgFMQu
p2751
I7
sV-Yw-AEHSPMtwz3YoxoOWrwu
p2752
I224
sVJrNSIOrh7S7FmlAmxnk0Mwu
p2753
I4
sVnBFyVu9NZ9zhY49LRoULKAu
p2754
I79
sVS1usSeYtTErPMn03LeWkCwu
p2755
I21
sVeSLH2TYj-6WIDvAky37TwQu
p2756
I16
sVPuvVkwHXoJQgFhTjYA5Qugu
p2757
I16
sVOl2o9swFpOzWhsITvRwyrgu
p2758
I3
sVIUWjTmXc3wLVaMHz33inaAu
p2759
I18
sVlkV_WCqCbpA5gUIHD6wtOwu
p2760
I41
sVws9yCrLLEJYK85WvJ-4g_gu
p2761
I18
sV5hIcclyqd9yelg2BlsiXBgu
p2762
I18
sVO3ZDghrrJoMAMi8OlHofegu
p2763
I19
sVrWDFpIYRyAC4N95zIwTzMAu
p2764
I36
sVoD7Zw2IT3yvJrD4tudAcjAu
p2765
I116
sVfiMKJ38m0lWsiGd3_uOrUQu
p2766
I34
sVVyl9tU5OeDcZND37iObmOwu
p2767
I56
sVh7YB0darjysgjqkm7Q_x-Au
p2768
I22
sVtUd-zwQwUUkJRWLtgN77lQu
p2769
I19
sVapcocTAW3lhHHCmHguGaPQu
p2770
I0
sViGtZCZEuow7pn6F7L1XYyAu
p2771
I10
sVOlPkzX3S8iNm2yVh92jTRAu
p2772
I28
sVzOswPaysmx_xNI5bpIsS3gu
p2773
I53
sVqUdXbLXXMjvFmf0_DTODiQu
p2774
I1
sVmR4JOr7uw_99MSDHRRbLzAu
p2775
I38
sV2KvxS3HmcOOXj2pCm8o6TQu
p2776
I38
sVHOleI3jz1MLNUJ6cc1x0Pwu
p2777
I7
sVe4asU9VABdygEo5dcFI1tgu
p2778
I4
sV-UdwnIQPRdiwexFNb3nW8Qu
p2779
I18
sViwUN95LIaEr75TZE_JC6bgu
p2780
I7
sV9Tdhy6FugHfDNMWJqRee2wu
p2781
I21
sVvavNK2thEATt_5TDX5llsAu
p2782
I18
sVS-Zbnoo0WTWqyeAlMra8Ywu
p2783
I41
sV0g8H0jBLrYuooQoE-OaJsQu
p2784
I21
sVj_9LVE3fqDx1lwYqkAIBEgu
p2785
I37
sVmEgD2AGWGKD_gs-Jf3Ypewu
p2786
I216
sVVnOtsJ2514YIAd0fM2O8oQu
p2787
I18
sVfP7UmVtPdKdsnyHjHqKbhgu
p2788
I36
sVN6hJMLqWiIlXZ_lgBjg3Fwu
p2789
I4
sV8UFMqUm9-BdbfrbHsYVpUgu
p2790
I0
sVFVyifV17Hy4hUjWCOH3Lagu
p2791
I34
sVoQZeITmS8rppOi9YukhbaQu
p2792
I18
sVpuY1mdD4w4AwIYPrIyEhWwu
p2793
I7
sVsyeVHkzH1kvf_u1CseOuCQu
p2794
I21
sVBBNiPq9HWuPAnylOfIo_qQu
p2795
I39
sV1-1KQfSPv-fJ-Rgi_U9aAgu
p2796
I267
sVWh5pL_iTBOj3R4W7cJWEkwu
p2797
I7
sVemNXAAschSlcvqmDZFj5TAu
p2798
I0
sVIE4Rt3gVwwiVXSK7sABYCQu
p2799
I39
sVfssa5dBpTurPCpqoTSXC6Qu
p2800
I10
sVlNYmqV_CMapcbucxD19_twu
p2801
I78
sVbCI2AMNWOEyXckLhlHUlAAu
p2802
I191
sVwBi0I2QcqZtNOh21WlBVKAu
p2803
I158
sVFmwWPEQMcxCGI5K1yqAXaAu
p2804
I100
sV7dwdRm4eu7CWtf_Eqit_dgu
p2805
I30
sVm7LcZ5Zy4JDXFlAfh3MpVgu
p2806
I19
sV6oZRgteievbfP0-fUhHWQgu
p2807
I1
sVDJzbBORAJjTiTzFCEdoMQQu
p2808
I7
sVq9XgOylNsSbqZqF_SO3-OQu
p2809
I7
sVcAJpG8briCwhX3KA7mly8gu
p2810
I7
sVOcDE055WLldCu7SEmcYpGgu
p2811
I7
sVysVhCkNub3ZtF4JPmp1KsAu
p2812
I104
sVtdoL4Un5_hy_rJxEFLLOjwu
p2813
I36
sVehaSUn67tWxlVpO5yAChHgu
p2814
I2
sV2qgjgzarF6jvIkpprvF9pgu
p2815
I19
sVi7qUFnEVmNbyCMZ81FO5Bgu
p2816
I36
sV3TGup17SCV6uHsifmTKirgu
p2817
I7
sVxFdK5lgUdeT3bWC7_MvcyQu
p2818
I1
sVlczLjHO7zIhrmSlOXI3ohgu
p2819
I30
sVuRA4TA2J5Rg7ZGEIjmnOjQu
p2820
I34
sVeWxE1YjGYkeuJ-ymRAdwQAu
p2821
I16
sVtL3SD3P_fwIQXBgqBfVjBgu
p2822
I136
sVzsBmBMbZhPuWKueEyKoI1Qu
p2823
I22
sVxg4AdOGHFxJyWByFbG8stAu
p2824
I7
sVlCkjeDVdhqhdM-GnmGOuMQu
p2825
I10
sVPzTP2RCSdBrZLbaxXgZ3kAu
p2826
I18
sVX6vSWes7JpMpQ6tQNtYwmAu
p2827
I53
sVgJEJg1fPVDPnkdcVFbVlBQu
p2828
I16
sV-qEO4PkRNlkmQKvpB0Im2Qu
p2829
I207
sV1RzVTIr6nxAwPV7RB7-U0Qu
p2830
I16
sV4IWN6WJcl64L5myjks7i5Au
p2831
I147
sV10L6DTJWSnjJilBlYuzU0Au
p2832
I37
sVd0wJVf7Gv7v1B-HHYhxZtQu
p2833
I7
sVKvVJJqmbgQaRPtzyi_84Wgu
p2834
I4
sVceKoQX0_IJZ6Lr9-9LGcbAu
p2835
I30
sVqwr3X7DIOlviqhJ-1Gt1_Qu
p2836
I18
sV_HWRiGMD14EvmTik8EqP0Qu
p2837
I187
sVLSf-IajkL99JQBZ3PzXnjQu
p2838
I35
sV0oOZAdxpX9lG9eKczRxzrQu
p2839
I0
sVl4zlZVb2Re4hyh1O62w5bQu
p2840
I131
sV1z5g776arNE0zf9Z_YAdvQu
p2841
I2
sV7cucTtf-UbtDxnvFnnb1jwu
p2842
I1
sVe-tEKhqFz0o0IB5r6C-OsAu
p2843
I1
sV8T0evnkvRaTomru7ghPGegu
p2844
I56
sVeBi9f5_3BvnOO23F7w1Emgu
p2845
I2
sVPdjTAOxX3sjAAXTZJJyJvwu
p2846
I2
sVnxHfcFGkhKkqhvuf5QEcMwu
p2847
I18
sVr68j756bEp2oF7Vs36J8Xgu
p2848
I246
sVBGUSxfFURrimKfTcHLi1twu
p2849
I37
sVMfbH-4cBh0EXWd7IKEuEhgu
p2850
I182
sVUE1UIi95jSk5tAzOdtnjIAu
p2851
I37
sVe3i2J-cBKJoP9Mth5uolhwu
p2852
I18
sVZZFCchKyoC2hcSznw79rzAu
p2853
I4
sVVA7_Zc2hW1QBLUuNoiXaXwu
p2854
I18
sVWNCNmynlYmIkz2VeTlfVRwu
p2855
I18
sVOhZEYs9jzyiTaSu_CfeVUAu
p2856
I0
sVqXxwTfCGF9tAvXOrY-hWlQu
p2857
I0
sVT0blTqTnEs01-evKHcSDFwu
p2858
I16
sV4nJ5ryQTcQKs8mCrgt8-BQu
p2859
I41
sVvCqiNuf7iEK71ytGBzwkKgu
p2860
I141
sVyf3unLOMkadn7xDYfeNC3Au
p2861
I10
sVxNb8pFe99ENj8BeMsCBPcQu
p2862
I18
sVjzOXS7tNPZM60-QWv-0R4wu
p2863
I75
sVqmdRG4PGjDEXazZYuFdDtAu
p2864
I21
sVmoEOEgj21Y01onne1PhSBAu
p2865
I36
sVSdrxxfTQGbT7iSdrGkulfgu
p2866
I0
sVXMEBJp8mmpz3vsSkvg9T9Qu
p2867
I0
sV2_HfgANoSydelB2FSExqWwu
p2868
I9
sVWgdgOlb-OIwKxb1p4xWwRAu
p2869
I41
sVqQns9dP75RNOWOVWI_ZKZwu
p2870
I216
sVi3JNq17dt9gPY8g_0CZibQu
p2871
I9
sVQUlZ0qEpV3eYeZx_jMtnoAu
p2872
I56
sVzWUQmRH9KDpTGQAQWkKTsAu
p2873
I6
sV7sFIvPXRt3Ve6CW604dDfQu
p2874
I262
sVL3-csFTxPRnG9eVIYoVoGAu
p2875
I39
sVpefVcILrG0JCD6YeS37s6Qu
p2876
I10
sVQVrTqrLm3MC2QtENKbdanAu
p2877
I18
sV9aEzLJUe-Fp2k3LQf3oOAQu
p2878
I0
sVUUUa3QKthaYPrfkE2aQujQu
p2879
I138
sVewRbnpR_QgnDoxgF4qa7mgu
p2880
I41
sVvVJcNOLtpuTH1DSq_KJxLwu
p2881
I96
sVWPpgplA0tnGn3E65Ng6aYgu
p2882
I1
sVbGjGAC_emJT3hWySi05QXQu
p2883
I33
sVy3sOyQUiwL_dV38H652dfwu
p2884
I4
sVTM_C2HvaDAl_TezK9Myybwu
p2885
I0
sVNnX4Pq_pibIt_1GSi-fx1wu
p2886
I21
sVcB30-Og37dzCWFCFzI_ChQu
p2887
I0
sVyy3jXczrKljJGzjo24HWfwu
p2888
I62
sVzASARWgR6xyOt2cfRtM43wu
p2889
I160
sVBkmIUgwHg_5TCkJbdMEiJQu
p2890
I18
sVUwFyrEm3B7WnH67Tq-Tx6gu
p2891
I149
sVpIm17SVRo8IdhGoBD4qbnAu
p2892
I56
sV7GAjxEA-OscXgPt7YFgkBwu
p2893
I16
sVTZ_k-BbXS6sEMiWQXlPnMAu
p2894
I1
sVm1Be6yOl8texdFfH337z7Qu
p2895
I196
sV6G8vLJUi1Ees2qC3RGA3Nwu
p2896
I30
sVdOhJ6mf09CTJciqW0lbKugu
p2897
I39
sV_C8Cx6g2qowNt9RfhENrFQu
p2898
I8
sV2IbMDQWmzM-kY7bhjS87zwu
p2899
I0
sVCjRxbxRwXYnQvfQqe1PhSwu
p2900
I22
sVZuSw1YWxnqFCPhOxKOHDIwu
p2901
I22
sVMmPOU8kbuwkE4NedXe-qZwu
p2902
I19
sVDN5GgGgpr4Fy7TFe41QLrwu
p2903
I12
sVF55sgaqHq2KE1LsixSKxAwu
p2904
I130
sVfqo9_FD2i0T33cAQyFA3Fgu
p2905
I41
sVHtJaaLowSSHKm4OebE0fzwu
p2906
I119
sVdn9DSDp9CYCRffmL1voq6gu
p2907
I30
sVi6b5_vf-hmSwdo-xY5kQVQu
p2908
I18
sVp8zh_-zQYwxbODaVxjRWEAu
p2909
I44
sVUm3dYcbMxowdJoulI12d2wu
p2910
I0
sV7GC9fVWKa4a1ZmBGLH6Uwwu
p2911
I7
sVvZY9J4QUNDeM23majM4nkAu
p2912
I0
sVKlLDE4egzf9VruPheiXHMAu
p2913
I2
sVIqdFvfcjqZXuuomsyGyTswu
p2914
I21
sVW1RbAHbhBrU5L1C-GrkPKgu
p2915
I0
sV3VNcUOix40nWglhL-BnFSgu
p2916
I37
sVeYoB6mEOCkraWM2vhYikvQu
p2917
I37
sVVH7pzgN50qLse-jHUJKfpQu
p2918
I10
sVtkO88XNu1J8wIpt1MylLiwu
p2919
I59
sVwo4b_NZrBfWLoPE0c_9Qngu
p2920
I18
sVQZWAvRJaIVj0_z1XsLAgPwu
p2921
I18
sVtE8RAfys0AmBb8gsKFqN7gu
p2922
I0
sVCAlxnkAuqNetlUmWtCQ_eQu
p2923
I199
sVdaa5M8CeCkUDjAlH3JOpUgu
p2924
I30
sVwhfI-HDW0LNL6XuXXYLl5Au
p2925
I165
sVcxjTpWMPg7u5Bb9OPWqaFwu
p2926
I39
sVtg5zCm3dlMDM_mwOfN1Rqwu
p2927
I10
sVSr-wB9G8KflQjbAS8Q3HQgu
p2928
I0
sVl9GGMi-zf2ZTbHbW8wrkTwu
p2929
I39
sVEc0_hyghnX9jZQW20OYeoAu
p2930
I177
sV5JirLeY4l9WKDd5ZWfuo9wu
p2931
I3
sVjy_RkV1GICtVQksIi_7SKgu
p2932
I18
sVLkDeO6yplqSFsuvcSGdB0Qu
p2933
I10
sV1KA57FObl0IkOcePIURCPwu
p2934
I18
sVu5WxYdg6CIv_3UJTwS1C3wu
p2935
I41
sVk2u1F6spBGhgk2JtAe97QAu
p2936
I7
sVdr7yIIVmIyiD17fy9QCQrgu
p2937
I4
sVhckr9Hf8BUHcXfOSDv9eJAu
p2938
I39
sVf2KU_Pwc3EzYaunvrACEeAu
p2939
I130
sVM9mayv89c7zxgUS-EKWtHwu
p2940
I56
sVb8amFHFX0bHs0wPxhc5q9Au
p2941
I4
sVP1qwZrslRv9KS9vPJNXe4gu
p2942
I238
sVMUHoBFzwRoXpCpgYSN8KRAu
p2943
I7
sVubBMKhz4h5a6QWEVCXvBZAu
p2944
I0
sVSYb1tpWN2_L029FSnAYXBQu
p2945
I248
sVWwbJ9F8CqdzdLwgrllGIegu
p2946
I87
sVWzt07hJrmdsPtF5HYdRIAQu
p2947
I0
sV5D7a5YZh2mwqx3UQEclUaQu
p2948
I37
sVOeF4ktJqY5Qf_gf494uE_gu
p2949
I18
sVgh2OwESXrgVyufGz_NPHxwu
p2950
I2
sVBBcgEL1sOeGMI_JTDiQGUQu
p2951
I1
sV6rkICkKa9RlOMy-L8g05fwu
p2952
I18
sVO5Ny7V84d8NkPCQCwrWfCgu
p2953
I41
sVN1tsQtWUFABnw9o4ulfukgu
p2954
I1
sVTkvsLJ6enrbKhA3-3X82gQu
p2955
I39
sVrjlb-7-JcmM6fR64ZpyTugu
p2956
I7
sVX_kPh3nt0AJPNPHye2rTlAu
p2957
I7
sVApRRz7fmtLKsfFU6963OUwu
p2958
I21
sVWWx1qs-YI86QUvvsTfLfegu
p2959
I7
sVg0QWJpYSfWKxQiel7gbFuwu
p2960
I1
sVLI17PZdJ67frvVdCNJkvYQu
p2961
I26
sVqTJw91zBn696dxp8RpiZfAu
p2962
I22
sVgFYzdoG6cugpg2PMi-_65Qu
p2963
I37
sV-E6yYsngVZqIUHlX856sbwu
p2964
I269
sVXpSZrY_Ym8GGx7SNEd0q9gu
p2965
I1
sVMAH6yRKKOGhbYFtmAjnPXgu
p2966
I250
sVtfYiqaLU5swUfMO9JJp9Dgu
p2967
I19
sVuZetl9T0NcROGOyFfughhgu
p2968
I18
sV6vmj7MMLnfYOLu1wCUpzYAu
p2969
I18
sVdXz7Eaw2D-Db1zgH-lXTKAu
p2970
I21
sV8iCgFpk2UHBYYw1aIbE6Lwu
p2971
I4
sV9g_ARKx0eJmNH8oO1TR9rQu
p2972
I36
sVoEnCbjvRux-4pjMQBgFbGAu
p2973
I21
sV6NXQQUBGpbqagR-Yg_cwKAu
p2974
I219
sVfIvDzLhs-cXbTKWp8P3eIAu
p2975
I254
sV69oFObWRSqAPFEnxwARXigu
p2976
I2
sVmIGJ761YC06_haLeQ0rgdQu
p2977
I101
sVAGFZfI2VEoWGE39sVjI-MAu
p2978
I10
sVvYmM4KTsC8ZfQBg-j5MWkwu
p2979
I56
sVvktGo1HGeFVoIvZ1K34a_Qu
p2980
I2
sVnYzUbD84BATuZCGCxnXsbgu
p2981
I133
sVUMYBiZFOqWRXeqGl6DvNoAu
p2982
I268
sVtaIivSuNH63GXk6Nw9rZdAu
p2983
I22
sVS8eelHW8CEHUznZxn75HSAu
p2984
I126
sVdj-vs4rukH6dXWVpPOq0_gu
p2985
I260
sVdJ7giC5CN3ywZMwFZ0PLBwu
p2986
I64
sVitv4pB3tbT7eMuVrFU65Tgu
p2987
I16
sVPlQAZxtS_GtuFYO3oSEQ4gu
p2988
I265
sVo1dzQzazIc9QZgNJ3XW-uQu
p2989
I30
sVsbNbxmGNodDJukgSXBFD4Qu
p2990
I9
sVSBWTjWSI0vD0tpAt0cALpAu
p2991
I34
sVvIBrfx6z6wvUFN5IJDLNygu
p2992
I167
sVvEQJEH7SnZTpiU4FYm0Acwu
p2993
I18
sV7nIWcmJhyPl-RbXustEPtwu
p2994
I10
sVwmxVjCmlcccFtAi4qSkFFwu
p2995
I18
sVVtMiUqswOapKPTXf1FIE7gu
p2996
I258
sVk99cC9QpbUXlGRWwxEe93wu
p2997
I241
sV_n6n9lirDx7SPAwTDaYNdQu
p2998
I4
sVAekI5EGgoYTFKecU3I0jfAu
p2999
I39
sV4ktUJ5frLvX32YZPrvDH4gu
p3000
I102
sV_PzSNcfrCjeBxSLXRoMmgQu
p3001
I30
sVhebAltnR9VqynQs_VWXBrgu
p3002
I36
sV6epv2K0PcxxNia1SNdQ_UAu
p3003
I10
sVzdDo1ZGwewj6q_YhnC4CeQu
p3004
I266
sVSsHpdQRKCnBquKEoD3sBtwu
p3005
I12
sVJL_cervg7k-NB199arXIdQu
p3006
I10
sV9LsuckL8ydgjI-1vN8ioyQu
p3007
I2
sV9pn3fWdbLLQpDXHUv5gU0Au
p3008
I39
sVClvLkgSq1NrWBMBDVPdT7Qu
p3009
I18
sVjxBExkM5SUSPTdPmHG-wzQu
p3010
I16
sVdn5lLgRj87xmJSF4BhHSIwu
p3011
I18
sV0VExqsOAcyzvuPXRuJCVWAu
p3012
I22
sVKb9O71yDY834pZyYXH46ngu
p3013
I4
sVpwjiI6wvbiD_ZXUX2yrxMgu
p3014
I51
sVzRa0MU0yii7QEcBrc2HsOwu
p3015
I36
sVIioY5h_4dA9yeuztUU9EJwu
p3016
I30
sVmQgRfp_lTYOPfFmfT_3KrQu
p3017
I10
sVQfbqGk9omEEsbaEpjGXVLQu
p3018
I9
sVYb29nRv-CP8wUUIYSuDFwwu
p3019
I1
sVtZqJoyI0dQoQCn_oRmhPrAu
p3020
I10
sVRsUNADZTrJ5xFXVMXJC1MQu
p3021
I154
sVJxytDdximBz9C1phOrd7pQu
p3022
I4
sV8rmeO9dhjsMSVV-HF9ZsCwu
p3023
I128
sVB_4H__6wcNBSJStdbYRKWwu
p3024
I2
sVZizecXqmTNj5AyaW3PwIpQu
p3025
I12
sVlkHLJZc4FempZ4ROvr3nRgu
p3026
I18
sVWUG7SjK9WtfU-3Y2Ua-XJgu
p3027
I0
sVOw8iWYjwgn7DzOU6yCBvXwu
p3028
I0
sVqaKzkFaZtqWIXCGQ-GStQwu
p3029
I16
sVbYZN1gwIQRS_miEPqeV9ogu
p3030
I38
sVXF2EX4k1KOKmqFOGHql4xwu
p3031
I41
sViNOnXh1iaEIUPfWFnMPdXgu
p3032
I19
sVYpoJfcupG358FRkif09m2gu
p3033
I2
sVwh5mqCxN7d1jlTQ4eIGmXQu
p3034
I6
sVIVb9YMopuGyt5jJ7rjwoqgu
p3035
I0
sVSimBqxBHYwkPE8X7f_RnVgu
p3036
I39
sVTgK1c5-IODkA3Y4KIHW8awu
p3037
I18
sVFqJILOiDtVXXydwG2zEf4Au
p3038
I21
sVEXBOkXWPNYZk5HFBg5NbTQu
p3039
I117
sV4dnDsoHuxUtzhaumxbpR5wu
p3040
I7
sVEpC7vMp0hg1wGBQ6fzzoQgu
p3041
I10
sVW9n_ZyVCXD0HfPqn6qriOwu
p3042
I7
sV32Dfj21nQ-xTDwfCJxZvhgu
p3043
I10
sVvArhfZStEAv8is9SM_YOOQu
p3044
I193
sV1OTnkDxkVFjdOpePMiXv6Au
p3045
I18
sVMjZ6z5wQk--uofMzZWXjdgu
p3046
I0
sVi-irTdF9JerNf0hG64EpEgu
p3047
I263
sV_R7t0Ettf1bIuN6tZDTjzgu
p3048
I4
sVGy9nOzH_L8NGCjrQr-ntngu
p3049
I2
sVOqsgdm-ViX65dVqUVOjlIAu
p3050
I10
sVBz2igotNP00BeYeo32KaSwu
p3051
I159
sVXWWY_FInjY6l50z91IEKAgu
p3052
I10
sVk5Qp3va9jlWVOuXY_pJDLQu
p3053
I49
sVKjk_U6MmsEy3wT3ePQn9Ygu
p3054
I18
sVARe8Nr_YehB2ubsGJhZ-hgu
p3055
I2
sVw1LjSa5wMexRIQ-82LKWmQu
p3056
I192
sVmAMRQF5-8cdWFONdnYIcgQu
p3057
I41
sVQk5YrT3dJywv_xjux8NSCQu
p3058
I18
sVyKtZQZvw6d9GjxXekw-YbAu
p3059
I51
sVobTixVBziFCH0e-EUnAvtgu
p3060
I36
sVQNuKebSaAD-ycWvaXL1G3Au
p3061
I0
sVvSDax-wHgIWG3I2IqquhuQu
p3062
I28
sVrLL7YKSJRyj9cVhiM_Y5pwu
p3063
I228
sVFyY_lBFItdSHgRagaTVu5Qu
p3064
I105
sV1u_jzMe9q3rHLUr8wb_GdAu
p3065
I16
sVgiwch_jkHmILclbawH3FSgu
p3066
I7
sVTHN1gW3GtetokJZaQ_J0Tgu
p3067
I2
sVa9i_DDUqZv-6LcWB1cKTOgu
p3068
I0
sVY66q9-Nggoo6W5BgoP5FbAu
p3069
I18
sVx46c5z1ldZHuYcLlrIf1nAu
p3070
I18
sVDNXdO9-uDc9PKNXTICIZWwu
p3071
I39
sVWPnoGr_ukB5BubC3bITkjQu
p3072
I4
sVR8Vm1249P4E-aZCuiEj7eQu
p3073
I18
sVhGxsYwRMYOAgwJAfOnHEAwu
p3074
I16
sVZdcEPM9ZRjd6WCviTOqrRgu
p3075
I6
sV4iAjtohAkJvMw6fVcXR_1wu
p3076
I86
sVqk7yog5ytWsttgc_tJMrFwu
p3077
I0
sV0Wq5xmoMkoC4P8pqr_P-Ewu
p3078
I0
sVYwYqTAVh8OmerhaRsDCHQgu
p3079
I2
sVizrPGEutYNurRfodgsIxAwu
p3080
I0
sVrw-Bpjrx9mcni1llZDhVtAu
p3081
I249
sVR4fDKQJxVYfVhHNz70lWVAu
p3082
I51
sVdhhhnpr_elfbD1xjMfAEjgu
p3083
I35
sV0lyVoNazXa20WzUyZPLaQQu
p3084
I16
sVnTCt6CV-qx3lHsHIMJqizgu
p3085
I30
sV7s9BkBonSqGHdVkpC_qdbwu
p3086
I35
sV_6seymnSl8rS-pw801ENAgu
p3087
I72
sVlozXJ32aLN2Zn-sdJtEKowu
p3088
I10
sV1VNkm_tLgWX4nwmNO_qdVQu
p3089
I150
sVPmnXHiOiRqgjzEtYu4_46wu
p3090
I254
sVqkbiaiS8t8YHWx3J04NjSwu
p3091
I7
sVZmf48_ZKIxVQZoE2vYCjUAu
p3092
I2
sVPVIJ0S6sVxGYstpyWAUciwu
p3093
I18
sVBtatRPR-wytl8lLwnokwPgu
p3094
I36
sV_aMz2TsaWs7yCPY2P5Ti8wu
p3095
I18
sVT-SKJo372IHScyKTlgpJhAu
p3096
I18
sV47VCrr83Tvtkp1FvDa0ftQu
p3097
I10
sVoXBahXJCXUEATm5IVexw8Au
p3098
I7
sV8c-U4JkTyMb2CmQ4QlMxRAu
p3099
I21
sVi-ws4XlBqcl9P4CLW11Gigu
p3100
I85
sVgVgbIRT9mJkeWSAzBA9i6gu
p3101
I16
sVfMfy2O2nPk3XWWmWSbszagu
p3102
I18
sVg_xSshgHtsJXjjaFg5myTwu
p3103
I130
sV0q87nf1yJFv0GML2J64Ttgu
p3104
I22
sVqR09EUhlR6g_NU6u5gbI8Au
p3105
I18
sVjpbXg1yKBl4FurBi5ukseQu
p3106
I18
sV4QVcUb0Gc4KiV3ls8d4aDAu
p3107
I30
sVC6IOtaaYdLIT5fWd7ZYIuAu
p3108
I243
sVxduo1Sh5ODv8yrmAA4janAu
p3109
I18
sV_H7YQYiXToV0paIoOeFNngu
p3110
I0
sVfxiCgoph0sakobXY9ZKFqQu
p3111
I1
sVBkpo2iZBMV5w_UCRAjWE1Qu
p3112
I0
sV23ErY8gmVNY2q30Fa_hH2Au
p3113
I0
sVjdoGEEy5s-5L1O_lNzEi2gu
p3114
I56
sVlaqYZNOlAaMLuIPWhPDDPQu
p3115
I166
sVwHKz3EjADr9pvyeZ5lPm7gu
p3116
I38
sVDvQ09Ieg_d_PgrAdQy71Qwu
p3117
I0
sV2LCrT_BOJvGV4xi_lmoRcAu
p3118
I7
sV8xx1Fn_7yZ_WhvrgdYwwZwu
p3119
I22
sVHfNSOBGT7payhKfl998BzQu
p3120
I18
sV6uNeagh9ljbwV8XRUn_cYAu
p3121
I18
sVYw-xww_bW2vHYEpFmw3-AQu
p3122
I21
sVfcvP-cuAN_h3Xu_uQOJDLwu
p3123
I39
sVv5k-__wHo2xPI25WO-dcQAu
p3124
I7
sV4M3j1m_vlCN5BRZsDUlzywu
p3125
I53
sV9-HYfV6NlnYgGk8s0wywJgu
p3126
I41
sVPWjdlug88aWpFEfPMJbSVgu
p3127
I90
sVKY7MQzgtx6Z5WFBIXVcoIwu
p3128
I30
sVSwnLshF0NJBRK9UilGA80Qu
p3129
I16
sVdH9FRHSZwlhLLamaZSFdGQu
p3130
I19
sVcEIeuU0-4fX0Y4qCUW3PwQu
p3131
I28
sVAirVzN1BVQBmq5zY0YMNYQu
p3132
I7
sVZqAQBRnMzoELyiSCKTY9AQu
p3133
I0
sV0DT6uIuDUM30L2frlnZHtAu
p3134
I35
sVS5bWqIBdnW38Sa9Be0HRjAu
p3135
I1
sVFU9C7AyE3ddFQEUUxgnGvQu
p3136
I10
sVf_YFU2h9rM0ZPrPJD6eCsgu
p3137
I18
sVFPMQ_LV7rtMNn-i11B-sZAu
p3138
I0
sVPiIdsdEd8JrRaMv5aDzSZAu
p3139
I195
sV4vECjx1eQSWCHfM3ZSbrNAu
p3140
I6
sVDXCWbLXFKWAv-Txq3cLhqQu
p3141
I18
sVGoymUzKqvET2QOZkIWZi9wu
p3142
I219
sVOmnXoXdLsXhOVHQCDX_nAwu
p3143
I1
sVCbtlzjG8Vfvh5cal6N82Nwu
p3144
I37
sVZYBhxMZk32e6DF77jjprhwu
p3145
I2
sVE2mIGd_i8HABU88FJYUXzgu
p3146
I152
sVy7sq26EXGz7XG7DSo8TOuQu
p3147
I180
sVyRa1outH7aJmkmV4fOhJuQu
p3148
I259
sVMx7Es4BLU_LHd3RKwwYELAu
p3149
I235
sVuQeOiwIoIn7sypJJm27ZjQu
p3150
I190
sVN1koTSTyiLCD8zH0rHSh4wu
p3151
I7
sV3NwAgpjNFe7SnYgVuGElWgu
p3152
I0
sVV9vStLuNc4aqZO_GK2VTuAu
p3153
I0
sV_zrV54gNkxXo3jwhU4lwIAu
p3154
I12
sVCg4CUfihhK4mXKo1RYhVowu
p3155
I19
sVKNuobvEuiEAOaIwHHlL3BAu
p3156
I36
sVePduC-tSwrMQRjKI4Suh7Qu
p3157
I0
sVV80GMVxOodncfnloTVxXygu
p3158
I39
sVq2voHQRY7Mcuv_fIPD8cugu
p3159
I56
sVXonXXh-iRudhbzAqztUPKQu
p3160
I39
sVmGhgVFl7_CCINpFWJdzjuAu
p3161
I39
sVXNqj4HdiDDYu7sciId2FvQu
p3162
I264
sVfSLyFeOWXc1Th_yY1BMYfwu
p3163
I37
sV-494b8jvjlI07v9HheHhrwu
p3164
I0
sV_YtM7pgpvrEWUJdpY-_S-Au
p3165
I4
sVVsfr0PxH_A458czK15n8dwu
p3166
I30
sVnSLrExcVVphiNzvSf5H7vAu
p3167
I231
sVjTaG2Td06bP5JLsayStEHQu
p3168
I1
sVcDCkt8gSd-MChr71u0g0Ngu
p3169
I53
sV7UhBV3q1JQLV3XC5OjmRNQu
p3170
I43
sVQ39QyQ_YKkbyiFQFRimDOgu
p3171
I0
sVNdcI47w2nbfw8CPtP3QPqQu
p3172
I10
sViQiiCZDlisBYApaPCM7uxAu
p3173
I4
sVfy64dq8l5iHNZ3cpYShjngu
p3174
I149
sVtKgDgXSkOklBb9tQVGkYhQu
p3175
I12
sVm9T2snsgTcNyr94cLNZiQQu
p3176
I39
sVTeadCRl7dptX1poe6ikrNQu
p3177
I22
sV-YLtOLwOh1_xxxBnGtuvNgu
p3178
I6
sVDf9kAosCVSIzl06qwhmBmAu
p3179
I38
sVmR7LQurf_awsKqDK46NRewu
p3180
I18
sVFxsDHxM9T4AAIkzGfcwd3wu
p3181
I1
sVvuUddBhwlrVijAAFvK5UTgu
p3182
I7
sVm7ivTnwguCCT3IHsW2eIeQu
p3183
I18
sVkHI1UedCN7pNnYEknsmqDAu
p3184
I18
sVNduGDKc6hLcb1S6OtW62XQu
p3185
I2
sVK1oCmRBaqdpJPPBRWyz18gu
p3186
I21
sV03kllIN9ASWGmecQPLPqZAu
p3187
I18
sVLxgdyviWGbgvVp_L0DABpgu
p3188
I2
sVZK_WcbPcxO7ZgHAbIoqFpwu
p3189
I7
sV9kndWBkI0Ld8jaeh2bKZbwu
p3190
I2
sVM3H8du5TxqlTY7qJd4FDbwu
p3191
I111
sV6SP-1gM4JV1tXGEe1Tu45gu
p3192
I4
sVj_WJjiBbkiU5qlFDkU0SYgu
p3193
I0
sVlwh635cEwkg7PFLQPqN2LQu
p3194
I19
sV-kZV2wchIgpROYwPLWlF8Au
p3195
I18
sVLrqVaLSI1Z0wPU73Zk7Y2wu
p3196
I18
sVikm0UCahtK34LbLCEw4YTwu
p3197
I247
sVpmmfUT0Mt2jKilCxmeqHVwu
p3198
I28
sV6qTA7oelKwpevf1lL_bIVAu
p3199
I18
sVtGfixyuAcecp8inl2L6uDgu
p3200
I165
sVyJ22u_1l01H4NM3wCowIKwu
p3201
I101
sVcwWJ6ydDLjl0AUu_KINZwwu
p3202
I39
sVIP3nF56J-9NEuW7fq29SQAu
p3203
I22
sVe9Q9nFvflhDDS7sSRPr-ugu
p3204
I0
sVk5b1u7Y3CFJ3oQizpAcrwAu
p3205
I28
sVl_gYq9wGIHzihot_AmqeIQu
p3206
I130
sVujBFcX607swXhq4oNk0R7Au
p3207
I214
sVFxxYCRPcpd__yhRRmmtyMQu
p3208
I7
sVx5ve4LVa-iIfZ65Qe9Pqvgu
p3209
I10
sV2TmYgUCnGmnNiKO8-STKpwu
p3210
I18
sVCpoBNk4GJ63ZPj4qa9uRnQu
p3211
I28
sVgcyEUr4DXcbjnGRAWFtfAQu
p3212
I7
sVMSDBaQUNFK7w5hhf11_Xswu
p3213
I4
sVDoR_Zi-LJvWsTzZHvjE2KQu
p3214
I16
sVydmF2KEbtiY0sSdppdyVTgu
p3215
I9
sVLDreqHkIUcAaa_Km8z-j4Au
p3216
I202
sVOmWQTt1N6SOK8QKLF3XijQu
p3217
I16
sVvwkbXfn1j6yDGcv9VgePawu
p3218
I4
sV1uwqR1r9nMDgI6RZT_bL2wu
p3219
I10
sVl5o2EBzzrATezHfitXoHVgu
p3220
I66
sVxYck-XrZR_FUSbVHAEiQVgu
p3221
I9
sVMkT6e_gu0HH1dw-iwigUDgu
p3222
I37
sVumzn9DZCaZZFz051G90vTQu
p3223
I18
sVzmZtT1T6-J4NcqP8j1L5jAu
p3224
I84
sV4B68sxxZv60-ROFcnScUWAu
p3225
I229
sVVEG7jnYwo905v4Lnoq37GAu
p3226
I9
sVlhvFynuv5pyc4XdFNebqGgu
p3227
I37
sVCM_vuEc6jKqpODm4hZJy8Qu
p3228
I35
sVGyj4JrP6uOMLjYjuOqfXYAu
p3229
I10
sVhD0eyCkWLJwTOX8--urDJAu
p3230
I18
sV1FGW3CCgLZiXdj_jUw0dNAu
p3231
I19
sV-J06hZ3w7N2oV5QwaAjtwgu
p3232
I18
sVIdcwNulMu2xQN8JDvm67SAu
p3233
I22
sVLJVPFZbU4AjcvbJUJbo5Hwu
p3234
I34
sVk5U-0FBwvWUob8dlT6RvmAu
p3235
I56
sV5EmSyNAw1PsQA51xldlkdgu
p3236
I2
sVgnTpvdXr-6DtC0PDDY7vhgu
p3237
I37
sV5UJ0tdHGPJGL3lBLEAerRwu
p3238
I16
sVbJJhM7tcOYq-7AefQKldaQu
p3239
I6
sVSPHXvrRXnajqW5I62ldYkwu
p3240
I16
sVE7pQvEw9tf_wxIRMWxCtNQu
p3241
I53
sVMrQCy8eJD1x51U87J5C6ZQu
p3242
I10
sV7izaZThzAWk2UjrDTL849wu
p3243
I4
sVajYMtA6UN8nn9Dz7nFbLdgu
p3244
I123
sVLP8JFPcEtA0ti8g_BRBX4wu
p3245
I7
ssS'byGroup'
p3246
(dp3247
I0
(lp3248
g3
ag2549
ag29
ag1029
ag2670
ag63
ag2666
ag93
ag106
ag115
ag118
ag149
ag151
ag162
ag169
ag174
ag176
ag177
ag181
ag196
ag212
ag236
ag242
ag1584
ag253
ag274
ag279
ag282
ag283
ag290
ag294
ag3117
ag304
ag1073
ag334
ag342
ag352
ag1079
ag357
ag368
ag370
ag401
ag407
ag408
ag409
ag412
ag3028
ag426
ag431
ag457
ag1621
ag481
ag485
ag512
ag520
ag529
ag583
ag586
ag597
ag604
ag614
ag616
ag1128
ag633
ag634
ag635
ag637
ag640
ag649
ag653
ag670
ag685
ag693
ag695
ag745
ag766
ag778
ag792
ag813
ag825
ag828
ag870
ag878
ag1382
ag882
ag894
ag895
ag904
ag918
ag946
ag975
ag978
ag2856
ag1006
ag1013
ag1033
ag1036
ag1038
ag1044
ag1050
ag206
ag1060
ag1080
ag1741
ag1205
ag1090
ag1207
ag1094
ag1102
ag1119
ag643
ag1155
ag1172
ag1189
ag1191
ag1209
ag1227
ag1235
ag1967
ag1259
ag1262
ag1266
ag1295
ag1300
ag2910
ag3171
ag2348
ag1334
ag1335
ag1348
ag1352
ag1359
ag1372
ag1377
ag1388
ag1396
ag1424
ag1435
ag1437
ag1439
ag1465
ag3133
ag1482
ag1486
ag1487
ag1492
ag1501
ag1515
ag3113
ag1533
ag1545
ag1559
ag1564
ag1568
ag1581
ag1590
ag1608
ag1615
ag1632
ag1661
ag1672
ag2202
ag963
ag1002
ag1742
ag1746
ag1769
ag1773
ag1777
ag1779
ag1808
ag1814
ag1817
ag1824
ag1863
ag1873
ag1875
ag1877
ag1887
ag1891
ag1899
ag1911
ag1934
ag1944
ag910
ag1951
ag3068
ag2629
ag1968
ag1984
ag1987
ag1993
ag1998
ag2003
ag2023
ag2044
ag2045
ag2046
ag2054
ag2068
ag2087
ag2095
ag2114
ag2119
ag286
ag2156
ag617
ag2218
ag2222
ag2382
ag2287
ag2342
ag730
ag1355
ag2371
ag2393
ag2412
ag2413
ag2415
ag2425
ag2427
ag2439
ag1871
ag2448
ag2453
ag2463
ag2469
ag2511
ag2518
ag2525
ag2533
ag2575
ag2597
ag2608
ag2618
ag2631
ag2716
ag2650
ag2655
ag2700
ag2712
ag2714
ag2723
ag2731
ag421
ag2770
ag2790
ag2798
ag776
ag2839
ag2857
ag2866
ag2867
ag2878
ag2885
ag2887
ag3077
ag2899
ag1303
ag2912
ag2915
ag2922
ag2928
ag2944
ag2947
ag3027
ag3035
ag3046
ag3061
ag589
ag2137
ag3078
ag3080
ag2350
ag3110
ag3112
ag2456
ag1329
ag3138
ag3152
ag3153
ag3157
ag3164
ag3193
ag3204
ag2060
asI1
(lp3249
g4
ag3019
ag6
ag22
ag33
ag53
ag54
ag57
ag60
ag62
ag81
ag127
ag130
ag132
ag160
ag202
ag351
ag376
ag404
ag411
ag531
ag144
ag434
ag603
ag628
ag678
ag683
ag715
ag746
ag758
ag777
ag806
ag931
ag1008
ag1010
ag52
ag1047
ag1048
ag1092
ag1224
ag1234
ag1265
ag1345
ag1484
ag1513
ag1660
ag1666
ag1714
ag1123
ag1757
ag1783
ag1803
ag1919
ag1922
ag1933
ag2843
ag1991
ag2022
ag2057
ag2111
ag2123
ag727
ag2154
ag2176
ag2190
ag2196
ag2197
ag576
ag2296
ag2328
ag1864
ag2490
ag2562
ag2565
ag2584
ag2621
ag2628
ag2719
ag2720
ag2750
ag2168
ag2774
ag2807
ag2818
ag2842
ag2882
ag2894
ag754
ag2951
ag2954
ag2960
ag2965
ag1641
ag3111
ag1917
ag3135
ag3143
ag3168
ag3181
asI2
(lp3250
g5
ag10
ag109
ag116
ag171
ag1575
ag209
ag237
ag256
ag306
ag315
ag330
ag2726
ag375
ag381
ag468
ag469
ag530
ag591
ag594
ag2814
ag681
ag699
ag769
ag1158
ag832
ag844
ag851
ag869
ag892
ag950
ag974
ag986
ag1012
ag1021
ag1056
ag1061
ag513
ag523
ag1132
ag740
ag770
ag1171
ag1174
ag1183
ag1067
ag1238
ag1264
ag1302
ag2358
ag3145
ag1443
ag1446
ag1456
ag1463
ag1469
ag1478
ag1541
ag1563
ag1566
ag159
ag1580
ag1586
ag1605
ag1637
ag1646
ag1669
ag1674
ag822
ag1707
ag1772
ag1784
ag1826
ag1918
ag1954
ag1955
ag2064
ag2076
ag2092
ag2210
ag2242
ag960
ag2351
ag2356
ag2471
ag2537
ag1576
ag2563
ag2598
ag2656
ag2674
ag2727
ag2729
ag2841
ag2845
ag2846
ag2913
ag1333
ag2950
ag2976
ag2980
ag3007
ag3024
ag3033
ag3049
ag3055
ag3067
ag1186
ag3079
ag3092
ag2513
ag1402
ag3185
ag3188
ag3190
ag3236
asI3
(lp3251
g2931
ag2758
asI4
(lp3252
g7
ag16
ag42
ag69
ag534
ag137
ag205
ag211
ag269
ag333
ag335
ag423
ag433
ag440
ag444
ag103
ag574
ag590
ag631
ag651
ag2789
ag849
ag865
ag871
ag959
ag355
ag1089
ag489
ag1120
ag1150
ag1156
ag1166
ag1168
ag1187
ag1320
ag1323
ag102
ag1574
ag201
ag1697
ag276
ag1728
ag1766
ag3022
ag2047
ag2084
ag2098
ag2115
ag2120
ag549
ag1838
ag2417
ag2519
ag2567
ag2672
ag2682
ag2697
ag2753
ag2778
ag2834
ag2853
ag2884
ag34
ag2937
ag2941
ag1503
ag2971
ag2998
ag3013
ag3048
ag3072
ag3165
ag3173
ag3192
ag3213
ag3218
ag2667
ag3243
asI5
(lp3253
g2336
ag410
asI6
(lp3254
g8
ag95
ag108
ag110
ag128
ag230
ag243
ag311
ag1795
ag331
ag382
ag405
ag1640
ag662
ag2219
ag1663
ag1141
ag789
ag896
ag983
ag1022
ag1611
ag1258
ag1273
ag1379
ag1423
ag1529
ag1536
ag1822
ag1561
ag1638
ag1671
ag1703
ag1713
ag1781
ag3034
ag2004
ag2041
ag2403
ag2419
ag1557
ag2517
ag661
ag2873
ag2110
ag3075
ag3140
ag3178
ag3239
asI7
(lp3255
g11
ag15
ag31
ag67
ag71
ag84
ag90
ag92
ag124
ag133
ag138
ag1049
ag164
ag195
ag225
ag1683
ag275
ag2147
ag288
ag3208
ag326
ag350
ag1082
ag394
ag396
ag427
ag584
ag439
ag442
ag448
ag2751
ag464
ag479
ag480
ag484
ag915
ag490
ag2185
ag507
ag525
ag526
ag1111
ag547
ag581
ag593
ag2332
ag605
ag622
ag624
ag655
ag1133
ag684
ag696
ag703
ag722
ag741
ag1678
ag2235
ag2808
ag799
ag810
ag827
ag841
ag842
ag863
ag879
ag889
ag902
ag909
ag926
ag930
ag956
ag1626
ag969
ag994
ag163
ag1062
ag1066
ag1100
ag544
ag1154
ag1157
ag803
ag1159
ag1173
ag3118
ag2322
ag1219
ag1240
ag1263
ag1281
ag1283
ag1287
ag1297
ag2344
ag1789
ag1326
ag1354
ag2354
ag1357
ag1369
ag1409
ag1410
ag1415
ag1416
ag1426
ag1450
ag1453
ag1462
ag1466
ag1474
ag2370
ag1477
ag1489
ag1812
ag1511
ag1512
ag1525
ag12
ag1554
ag1589
ag1595
ag1601
ag1609
ag1832
ag1619
ag72
ag1634
ag1643
ag1652
ag1662
ag1682
ag1701
ag1717
ag1733
ag1740
ag1767
ag1775
ag1782
ag1852
ag1798
ag1809
ag1845
ag1853
ag1858
ag1884
ag1894
ag1900
ag1903
ag1907
ag2473
ag1971
ag1973
ag2026
ag2033
ag2039
ag2052
ag2059
ag2079
ag2220
ag2096
ag89
ag2118
ag2128
ag2130
ag2144
ag2108
ag2165
ag2211
ag2183
ag2191
ag2192
ag1679
ag2622
ag2243
ag2245
ag881
ag1304
ag2259
ag2283
ag2285
ag2286
ag2299
ag2301
ag2306
ag2310
ag1135
ag2316
ag2339
ag2375
ag2380
ag2396
ag1096
ag2432
ag2475
ag2476
ag2480
ag2481
ag2484
ag2486
ag2495
ag2507
ag2516
ag2524
ag2543
ag1039
ag2557
ag2560
ag2569
ag2582
ag2599
ag2627
ag1455
ag2639
ag2644
ag2651
ag2652
ag2654
ag2664
ag2671
ag2686
ag2793
ag2733
ag573
ag2749
ag666
ag2777
ag2780
ag2797
ag2809
ag2810
ag2811
ag2817
ag2824
ag2833
ag999
ag2911
ag2936
ag2943
ag374
ag2956
ag2957
ag2959
ag3040
ag3042
ag3066
ag2280
ag3091
ag3098
ag3124
ag3132
ag3151
ag3182
ag3189
ag3212
ag958
ag3245
asI8
(lp3256
g9
ag2898
asI9
(lp3257
g1542
ag38
ag43
ag120
ag125
ag145
ag188
ag193
ag313
ag340
ag359
ag360
ag596
ag1165
ag943
ag3221
ag2871
ag1109
ag1143
ag1147
ag1289
ag1317
ag1356
ag1383
ag1407
ag1534
ag2394
ag571
ag1844
ag1908
ag2136
ag2234
ag1404
ag1867
ag2491
ag2505
ag1540
ag2542
ag2632
ag2648
ag2868
ag2990
ag3018
ag1965
ag301
ag3215
ag3226
asI10
(lp3258
g1397
ag13
ag83
ag2125
ag168
ag182
ag1052
ag192
ag224
ag2151
ag2153
ag1598
ag341
ag349
ag358
ag361
ag414
ag420
ag430
ag432
ag476
ag502
ag515
ag533
ag536
ag568
ag578
ag610
ag621
ag1654
ag1131
ag675
ag682
ag1664
ag692
ag697
ag701
ag711
ag720
ag721
ag723
ag724
ag725
ag750
ag802
ag1160
ag819
ag831
ag846
ag852
ag859
ag877
ag884
ag900
ag903
ag905
ag911
ag939
ag948
ag951
ag973
ag987
ag997
ag1028
ag187
ag1063
ag1074
ag1118
ag1759
ag1185
ag1188
ag1200
ag1253
ag1269
ag1291
ag1292
ag1293
ag1307
ag1319
ag1792
ag1336
ag1342
ag1344
ag1368
ag2771
ag1380
ag2927
ag1406
ag1418
ag1421
ag1433
ag1493
ag1537
ag1549
ag1555
ag1562
ag2385
ag1630
ag1655
ag1658
ag1686
ag1687
ag1732
ag1734
ag1736
ag1752
ag1780
ag1840
ag3050
ag1499
ag1818
ag3006
ag1866
ag1869
ag2443
ag1888
ag1896
ag1898
ag1925
ag1974
ag1976
ag1980
ag1989
ag3041
ag3043
ag2028
ag2317
ag704
ag2135
ag2142
ag2149
ag2169
ag2195
ag2499
ag2221
ag2223
ag2248
ag2264
ag2271
ag2279
ag2318
ag2349
ag3097
ag2364
ag2372
ag2378
ag2386
ag2395
ag2421
ag2431
ag2460
ag2461
ag2465
ag2485
ag2489
ag2515
ag2522
ag2530
ag1958
ag2561
ag2580
ag2606
ag2616
ag2691
ag2722
ag546
ag2825
ag2861
ag2876
ag2918
ag3219
ag2933
ag2978
ag2994
ag3003
ag3017
ag3020
ag3052
ag3088
ag3136
ag3172
ag2800
ag3209
ag801
ag3229
ag3242
asI11
(lp3259
g14
ag1217
asI12
(lp3260
g17
ag117
ag136
ag1569
ag226
ag297
ag919
ag988
ag498
ag2903
ag580
ag2595
ag496
ag890
ag989
ag990
ag1184
ag1457
ag1551
ag1152
ag1830
ag1846
ag1857
ag1904
ag2035
ag2131
ag2256
ag2363
ag2604
ag2696
ag3005
ag3025
ag3154
ag3175
asI13
(lp3261
g18
ag1341
ag2741
asI14
(lp3262
g19
ag641
ag759
ag1613
ag2053
asI15
(lp3263
g20
ag1272
asI16
(lp3264
g21
ag26
ag47
ag134
ag260
ag278
ag338
ag345
ag364
ag371
ag399
ag419
ag453
ag463
ag2756
ag550
ag555
ag587
ag1651
ag646
ag658
ag673
ag733
ag744
ag752
ag455
ag856
ag2284
ag2509
ag920
ag944
ag993
ag1003
ag1065
ag1068
ag1137
ag3101
ag1256
ag1299
ag1358
ag1391
ag2189
ag2365
ag1461
ag1488
ag1491
ag1527
ag1550
ag1636
ag623
ag642
ag690
ag1693
ag1704
ag1718
ag1727
ag2112
ag1768
ag2430
ag1825
ag1848
ag1859
ag626
ag1872
ag1906
ag2748
ag1946
ag1948
ag2113
ag2077
ag3065
ag2177
ag2178
ag1136
ag3074
ag2238
ag3084
ag2262
ag2311
ag2391
ag2401
ag2407
ag2411
ag1982
ag2508
ag2273
ag2551
ag2594
ag2619
ag2626
ag2665
ag2676
ag2685
ag2724
ag2736
ag415
ag2745
ag2757
ag2821
ag2828
ag2830
ag2858
ag2893
ag2987
ag3010
ag3029
ag1960
ag1985
ag366
ag1279
ag3129
ag3240
ag3214
ag3217
ag3238
asI17
(lp3265
g23
ag2049
asI18
(lp3266
g24
ag36
ag73
ag79
ag773
ag114
ag129
ag135
ag150
ag158
ag166
ag172
ag179
ag191
ag1055
ag207
ag208
ag2132
ag214
ag220
ag221
ag232
ag241
ag268
ag281
ag285
ag291
ag293
ag298
ag300
ag314
ag363
ag365
ag377
ag380
ag392
ag395
ag1616
ag588
ag441
ag443
ag447
ag2179
ag456
ag467
ag470
ag477
ag478
ag482
ag1103
ag491
ag511
ag2188
ag527
ag2762
ag537
ag545
ag554
ag561
ag579
ag602
ag548
ag609
ag619
ag647
ag652
ag659
ag660
ag668
ag689
ag691
ag700
ag710
ag738
ag742
ag1148
ag751
ag753
ag756
ag765
ag1151
ag781
ag793
ag795
ag796
ag797
ag820
ag821
ag824
ag835
ag845
ag847
ag857
ag860
ag861
ag867
ag868
ag873
ag880
ag885
ag886
ag888
ag906
ag912
ag917
ag934
ag936
ag2921
ag937
ag938
ag952
ag962
ag965
ag968
ag2274
ag991
ag992
ag2855
ag1043
ag1051
ag1069
ag1071
ag1072
ag317
ag1075
ag1077
ag1088
ag1091
ag1105
ag1127
ag632
ag1144
ag1153
ag1164
ag1167
ag2315
ag1193
ag3096
ag1220
ag1222
ag1228
ag1242
ag1246
ag1249
ag1257
ag1276
ag1294
ag1296
ag1298
ag1301
ag1316
ag1322
ag2539
ag1337
ag1338
ag1340
ag1370
ag1392
ag1395
ag1411
ag1427
ag1432
ag2635
ag1458
ag1505
ag2949
ag1531
ag3106
ag1578
ag1588
ag1592
ag1593
ag1599
ag1625
ag508
ag1633
ag1642
ag3109
ag1648
ag1650
ag1656
ag1670
ag1675
ag1676
ag755
ag1692
ag2504
ag1695
ag1696
ag356
ag1724
ag1725
ag980
ag1731
ag1739
ag539
ag1743
ag1748
ag1753
ag1758
ag295
ag1764
ag1788
ag1807
ag1813
ag1816
ag1831
ag1836
ag1842
ag3011
ag1862
ag2673
ag1868
ag1874
ag1876
ag1878
ag1886
ag1893
ag1905
ag1915
ag1949
ag1959
ag1961
ag2458
ag1966
ag1970
ag1975
ag1990
ag1997
ag2000
ag2005
ag2007
ag2014
ag2015
ag2018
ag2021
ag2024
ag2048
ag2058
ag2061
ag2067
ag2072
ag2080
ag2105
ag2139
ag2143
ag2148
ag2158
ag2167
ag2172
ag2173
ag2187
ag2198
ag2200
ag2215
ag680
ag2230
ag2231
ag2246
ag2249
ag2266
ag984
ag2377
ag2290
ag2294
ag2302
ag2304
ag2305
ag2314
ag229
ag2323
ag2326
ag1260
ag2345
ag3095
ag2357
ag2368
ag3037
ag2389
ag2433
ag2435
ag2440
ag2450
ag2454
ag3210
ag2467
ag2070
ag2133
ag2492
ag2497
ag1001
ag2500
ag2546
ag2527
ag2531
ag2532
ag2534
ag2548
ag2550
ag2564
ag2572
ag2576
ag2587
ag2588
ag2589
ag3137
ag2609
ag2617
ag2620
ag2633
ag2643
ag2646
ag2659
ag1532
ag78
ag2679
ag2690
ag348
ag2734
ag2746
ag2761
ag532
ag2779
ag2787
ag2792
ag28
ag837
ag2826
ag2836
ag2847
ag2852
ag2854
ag996
ag2862
ag2877
ag2890
ag2908
ag1192
ag2920
ag2932
ag2934
ag2952
ag2968
ag2969
ag2993
ag2995
ag3184
ag3009
ag1850
ag3026
ag1952
ag3045
ag3054
ag3058
ag3069
ag3070
ag3073
ag2244
ag3093
ag425
ag2759
ag2282
ag3102
ag3105
ag3120
ag3121
ag3230
ag2601
ag3141
ag2782
ag3180
ag3183
ag3187
ag3195
ag3196
ag543
ag3223
ag2379
ag3232
ag1045
ag3199
asI19
(lp3267
g25
ag35
ag59
ag70
ag74
ag101
ag121
ag183
ag245
ag247
ag384
ag460
ag1107
ag514
ag734
ag735
ag779
ag2498
ag830
ag3155
ag901
ag961
ag972
ag1000
ag1041
ag1058
ag1099
ag1106
ag1117
ag712
ag1177
ag1198
ag1226
ag1229
ag1247
ag1251
ag2333
ag1308
ag1386
ag1438
ag1517
ag1570
ag1614
ag1647
ag1691
ag1897
ag1901
ag1910
ag3032
ag1972
ag2459
ag1995
ag2002
ag2032
ag2040
ag2083
ag2122
ag2126
ag2209
ag2276
ag2337
ag2011
ag2457
ag2477
ag2526
ag2544
ag2552
ag2577
ag2623
ag2653
ag66
ag2735
ag2763
ag2769
ag2806
ag2815
ag2902
ag2967
ag3130
ag3194
ag3231
asI20
(lp3268
g27
ag1095
asI21
(lp3269
g30
ag37
ag65
ag1034
ag111
ag175
ag316
ag524
ag557
ag686
ag687
ag698
ag708
ag719
ag739
ag747
ag791
ag808
ag883
ag924
ag947
ag1199
ag1085
ag1178
ag1081
ag1239
ag1241
ag1349
ag1390
ag1449
ag1521
ag1530
ag1612
ag1751
ag1776
ag2493
ag1806
ag1945
ag2009
ag2034
ag2051
ag2081
ag2093
ag2101
ag2180
ag2213
ag2224
ag2260
ag2340
ag2347
ag1476
ag2399
ag2436
ag2455
ag2536
ag2677
ag2694
ag2699
ag2704
ag2755
ag2781
ag2784
ag2794
ag762
ag941
ag2864
ag2886
ag2914
ag1522
ag2958
ag2970
ag2973
ag3038
ag2257
ag3099
ag3122
ag1834
ag3186
asI22
(lp3270
g32
ag45
ag49
ag147
ag402
ag438
ag462
ag499
ag501
ag1627
ag535
ag565
ag569
ag582
ag718
ag732
ag743
ag817
ag829
ag2823
ag2312
ag2254
ag1005
ag1196
ag1398
ag1447
ag1509
ag1546
ag1668
ag1756
ag1778
ag1794
ag2900
ag2013
ag2020
ag2088
ag2102
ag100
ag2155
ag2212
ag2361
ag1849
ag2521
ag2553
ag2566
ag2611
ag2612
ag2668
ag2680
ag2768
ag3177
ag2901
ag2962
ag2983
ag3012
ag3233
ag2075
ag3104
ag3119
ag3203
asI23
(lp3271
g1248
ag2592
asI24
(lp3272
g39
ag2715
asI25
(lp3273
g40
ag887
asI26
(lp3274
g2121
ag190
ag2961
asI27
(lp3275
g41
ag2206
asI28
(lp3276
g44
ag107
ag219
ag252
ag2721
ag400
ag422
ag466
ag595
ag957
ag976
ag1101
ag812
ag1179
ag1236
ag1250
ag1290
ag1361
ag1366
ag1604
ag1665
ag1729
ag1833
ag1880
ag1927
ag1942
ag2488
ag2678
ag2228
ag2367
ag2437
ag2555
ag2772
ag3062
ag1914
ag1635
ag3131
ag3198
ag3205
ag3211
asI29
(lp3277
g46
ag383
ag1202
asI30
(lp3278
g48
ag139
ag180
ag223
ag250
ag287
ag309
ag328
ag373
ag388
ag510
ag566
ag598
ag629
ag650
ag716
ag2528
ag922
ag942
ag967
ag981
ag3001
ag1030
ag1110
ag1134
ag826
ag1170
ag1203
ag1761
ag1277
ag1384
ag1387
ag1440
ag1471
ag2159
ag472
ag1629
ag1644
ag1649
ag1680
ag1694
ag1744
ag1745
ag2506
ag1827
ag1969
ag1981
ag2031
ag2146
ag2203
ag2227
ag2241
ag731
ag2295
ag1547
ag3107
ag2474
ag2558
ag2573
ag2640
ag2805
ag2819
ag2835
ag2896
ag2907
ag2924
ag2989
ag3016
ag3085
ag3128
ag3166
ag1282
asI31
(lp3279
g50
ag1197
asI32
(lp3280
g51
ag1854
asI33
(lp3281
g55
ag2883
asI34
(lp3282
g56
ag94
ag235
ag277
ag307
ag320
ag494
ag585
ag656
ag1145
ag763
ag786
ag833
ag985
ag1104
ag1121
ag1140
ag1233
ag1288
ag1360
ag1819
ag1870
ag1885
ag1953
ag1113
ag2268
ag3234
ag2289
ag2335
ag2384
ag1771
ag2468
ag2239
ag227
ag2820
ag2766
ag2791
ag2991
asI35
(lp3283
g61
ag112
ag142
ag198
ag303
ag503
ag663
ag667
ag671
ag674
ag729
ag809
ag836
ag853
ag2470
ag970
ag1024
ag1046
ag1084
ag1126
ag1285
ag1311
ag1371
ag1375
ag1376
ag2360
ag1434
ag1451
ag3228
ag1502
ag1548
ag1582
ag1596
ag324
ag1659
ag1677
ag1710
ag1716
ag1799
ag1913
ag2182
ag2199
ag2291
ag2321
ag2366
ag2374
ag2512
ag2538
ag2568
ag1882
ag2603
ag2607
ag2615
ag2657
ag2681
ag2713
ag2838
ag3083
ag3086
ag1015
ag3134
asI36
(lp3284
g64
ag1558
ag152
ag197
ag231
ag2708
ag559
ag266
ag296
ag403
ag436
ag445
ag451
ag486
ag2764
ag560
ag615
ag705
ag714
ag2865
ag1829
ag772
ag2253
ag898
ag921
ag1042
ag1053
ag1754
ag1215
ag1275
ag2107
ag1347
ag1431
ag1472
ag1475
ag1560
ag2381
ag1617
ag521
ag1645
ag1738
ag1765
ag1785
ag1811
ag1851
ag2071
ag3060
ag2145
ag2174
ag2205
ag768
ag2237
ag2255
ag2330
ag2387
ag2445
ag2452
ag2585
ag2637
ag2689
ag280
ag2788
ag2813
ag2816
ag1098
ag2972
ag3002
ag3015
ag3094
ag474
ag1401
ag3156
asI37
(lp3285
g68
ag98
ag113
ag122
ag261
ag292
ag387
ag473
ag540
ag606
ag694
ag800
ag814
ag843
ag862
ag1730
ag1019
ag1031
ag1125
ag1161
ag1212
ag1271
ag1314
ag2916
ag1378
ag1414
ag1442
ag1552
ag167
ag1572
ag1585
ag2963
ag1700
ag1709
ag1722
ag1232
ag2424
ag1823
ag1865
ag1895
ag1983
ag1996
ag2010
ag2129
ag2140
ag2166
ag2251
ag2917
ag2376
ag2398
ag2414
ag2307
ag2556
ag2559
ag2574
ag2581
ag2605
ag2630
ag2661
ag119
ag2687
ag2785
ag2832
ag2849
ag2851
ag2948
ag3144
ag3163
ag3222
ag3227
ag3237
asI38
(lp3286
g75
ag97
ag141
ag189
ag264
ag271
ag1708
ag284
ag354
ag483
ag556
ag1950
ag600
ag625
ag657
ag748
ag805
ag850
ag893
ag897
ag913
ag977
ag982
ag1057
ag1114
ag1162
ag1252
ag1254
ag1270
ag1473
ag1699
ag1673
ag1750
ag2164
ag1763
ag1618
ag1841
ag1881
ag3030
ag2742
ag2038
ag2056
ag2097
ag1318
ag2124
ag2171
ag2186
ag2204
ag1353
ag2288
ag2308
ag964
ag1180
ag2338
ag2359
ag1639
ag2405
ag2434
ag3116
ag2529
ag3179
ag2610
ag2693
ag204
ag2710
ag2738
ag2775
ag2776
ag2422
ag2416
asI39
(lp3287
g76
ag80
ag2025
ag123
ag170
ag185
ag186
ag216
ag2706
ag238
ag254
ag325
ag437
ag608
ag570
ag577
ag611
ag613
ag627
ag665
ag707
ag713
ag736
ag782
ag788
ag790
ag798
ag1688
ag2258
ag3123
ag1721
ag979
ag995
ag998
ag1007
ag1018
ag1026
ag1093
ag1097
ag2300
ag1124
ag1175
ag1206
ag1214
ag1231
ag1244
ag1274
ag1310
ag1313
ag1330
ag1350
ag1351
ag1374
ag1419
ag1467
ag1496
ag1500
ag1508
ag2955
ag321
ag2207
ag429
ag1623
ag1653
ag1705
ag1715
ag1720
ag1723
ag1749
ag1793
ag1839
ag1879
ag1941
ag1988
ag1994
ag2006
ag2008
ag2017
ag2062
ag2073
ag2201
ag319
ag2184
ag517
ag2193
ag2229
ag2272
ag2297
ag2320
ag2324
ag2409
ag2410
ag2420
ag2462
ag2479
ag2483
ag2938
ag2514
ag2520
ag3176
ag2426
ag2570
ag2571
ag2578
ag2590
ag2613
ag2624
ag2638
ag2692
ag2703
ag2705
ag2739
ag2744
ag2795
ag2799
ag2702
ag2875
ag2897
ag2926
ag2929
ag2999
ag3008
ag3036
ag3071
ag2240
ag3158
ag3160
ag3161
ag3202
asI40
(lp3288
g77
ag131
ag567
ag1243
ag2303
asI41
(lp3289
g2675
ag87
ag96
ag562
ag336
ag424
ag452
ag458
ag461
ag645
ag709
ag2501
ag2953
ag818
ag855
ag899
ag1035
ag1130
ag1394
ag1587
ag1610
ag1684
ag1770
ag1815
ag2438
ag2441
ag1931
ag1939
ag3031
ag2250
ag2030
ag2042
ag2487
ag528
ag1405
ag2593
ag2658
ag2688
ag305
ag2760
ag2783
ag2869
ag2880
ag2905
ag2100
ag2935
ag3057
ag3126
ag2859
asI42
(lp3290
g82
ag372
ag1726
asI43
(lp3291
g85
ag203
ag228
ag386
ag1122
ag1448
ag1514
ag1620
ag3170
asI44
(lp3292
g86
ag2327
ag1856
ag2909
asI45
(lp3293
g88
ag155
ag2236
asI46
(lp3294
g91
ag928
ag362
asI47
(lp3295
g99
ag764
ag1182
asI48
(lp3296
g2116
ag2596
asI49
(lp3297
g104
ag156
ag248
ag3053
asI50
(lp3298
g105
ag459
asI51
(lp3299
g2683
ag406
ag618
ag638
ag1014
ag1115
ag1139
ag1230
ag1245
ag1579
ag1786
ag1892
ag2085
ag255
ag3082
ag2369
ag2400
ag1280
ag3014
ag3059
asI52
(lp3300
g126
ag1321
asI53
(lp3301
g140
ag322
ag1603
ag353
ag475
ag504
ag1108
ag2773
ag599
ag636
ag717
ag728
ag757
ag785
ag787
ag1459
ag1479
ag1497
ag1518
ag1737
ag1801
ag1883
ag1924
ag1936
ag2170
ag2036
ag2134
ag2214
ag2263
ag2583
ag2352
ag2267
ag2827
ag2737
ag3125
ag3169
ag3241
asI54
(lp3302
g143
ag1802
ag2428
asI55
(lp3303
g542
ag1464
asI56
(lp3304
g146
ag239
ag272
ag302
ag347
ag367
ag471
ag558
ag612
ag644
ag774
ag804
ag816
ag927
ag1011
ag1023
ag1037
ag1054
ag369
ag1086
ag1309
ag1327
ag1363
ag1364
ag1485
ag1519
ag1523
ag1535
ag1538
ag1577
ag1597
ag2388
ag465
ag1667
ag1762
ag2418
ag1916
ag1964
ag1992
ag2063
ag2082
ag2103
ag2104
ag2175
ag1986
ag2261
ag2277
ag2478
ag2502
ag2547
ag2554
ag2591
ag2634
ag2767
ag2844
ag2872
ag2892
ag1393
ag2940
ag2979
ag3114
ag3159
ag3235
asI57
(lp3305
g148
ag1553
asI58
(lp3306
g153
ag516
ag2466
asI59
(lp3307
g154
ag428
ag648
ag767
ag932
ag953
ag1195
ag1339
ag1441
ag1544
ag1594
ag2029
ag2055
ag2160
ag2919
ag2408
ag1591
asI60
(lp3308
g1567
ag449
ag346
asI61
(lp3309
g161
ag1943
asI62
(lp3310
g165
ag2888
asI63
(lp3311
g173
ag1760
asI64
(lp3312
g178
ag509
ag1430
ag2986
asI65
(lp3313
g184
ag299
ag418
ag677
ag2161
ag1543
asI66
(lp3314
g194
ag3220
asI67
(lp3315
g199
ag1622
asI68
(lp3316
g200
ag2090
asI69
(lp3317
g2698
ag251
asI70
(lp3318
g213
ag2728
asI71
(lp3319
g215
ag2730
ag1452
ag2325
asI72
(lp3320
g217
ag522
ag3087
asI73
(lp3321
g218
ag492
ag2496
asI74
(lp3322
g222
ag784
asI75
(lp3323
g233
ag2863
asI76
(lp3324
g234
ag487
ag706
ag760
ag1040
ag1218
ag1747
ag2163
ag2275
ag2281
ag2711
asI77
(lp3325
g244
ag393
ag1573
ag688
ag1556
asI78
(lp3326
g1149
ag500
ag1331
ag2801
asI79
(lp3327
g2141
ag1328
ag2127
ag2329
ag2754
asI80
(lp3328
g257
ag2343
asI81
(lp3329
g258
ag1681
asI82
(lp3330
g259
ag1408
ag2397
asI83
(lp3331
g265
ag1221
asI84
(lp3332
g267
ag3224
asI85
(lp3333
g273
ag3100
asI86
(lp3334
g289
ag3076
asI87
(lp3335
g308
ag891
ag2946
ag1498
asI88
(lp3336
g310
ag552
asI89
(lp3337
g312
ag1032
asI90
(lp3338
g323
ag329
ag1373
ag874
ag3127
asI91
(lp3339
g327
ag391
asI92
(lp3340
g337
ag1428
asI93
(lp3341
g339
ag676
asI94
(lp3342
g343
ag1787
ag2404
asI95
(lp3343
g344
ag2298
asI96
(lp3344
g1712
ag2881
asI97
(lp3345
g378
ag2725
asI98
(lp3346
g379
ag807
asI99
(lp3347
g385
ag1420
ag2089
asI100
(lp3348
g389
ag858
ag2278
ag240
ag2804
asI101
(lp3349
g390
ag2001
ag2977
ag3201
asI102
(lp3350
g413
ag1602
ag3000
asI103
(lp3351
g2740
ag864
ag2341
asI104
(lp3352
g416
ag2812
asI105
(lp3353
g435
ag3064
asI106
(lp3354
g446
ag1685
asI107
(lp3355
g454
ag1286
asI108
(lp3356
g488
ag263
asI109
(lp3357
g493
ag538
asI110
(lp3358
g495
ag607
asI111
(lp3359
g497
ag761
ag3191
asI112
(lp3360
g506
ag572
ag1332
asI113
(lp3361
g518
ag270
ag2269
ag1211
asI114
(lp3362
g519
ag505
ag2707
asI115
(lp3363
g1631
ag1064
ag2319
asI116
(lp3364
g2765
ag1843
asI117
(lp3365
g551
ag1930
ag3039
asI118
(lp3366
g553
ag1702
ag2078
asI119
(lp3367
g249
ag2906
asI120
(lp3368
g563
ag1510
asI121
(lp3369
g564
ag1506
ag2647
ag2660
asI122
(lp3370
g575
ag2152
asI123
(lp3371
g592
ag3244
asI124
(lp3372
g601
ag2579
asI125
(lp3373
g620
ag1480
asI126
(lp3374
g630
ag679
ag1268
ag1800
ag318
ag2984
asI127
(lp3375
g639
ag935
ag1059
ag1524
ag1571
ag2663
asI128
(lp3376
g654
ag3023
asI129
(lp3377
g664
ag2695
asI130
(lp3378
g669
ag875
ag929
ag1735
ag1999
ag2194
ag2138
ag2904
ag2939
ag2446
ag3103
ag3206
asI131
(lp3379
g702
ag2840
asI132
(lp3380
g726
ag246
asI133
(lp3381
g737
ag1176
ag1583
ag2353
ag2981
asI134
(lp3382
g262
ag1935
ag2027
ag2641
asI135
(lp3383
g771
ag2718
asI136
(lp3384
g397
ag1429
ag2822
asI137
(lp3385
g775
ag940
ag1083
ag1116
ag1225
ag1481
ag1797
ag1932
ag1957
ag2669
ag2216
asI138
(lp3386
g780
ag2879
asI139
(lp3387
g783
ag672
asI140
(lp3388
g794
ag2313
ag2541
asI141
(lp3389
g811
ag2860
asI142
(lp3390
g815
ag1454
asI143
(lp3391
g823
ag1237
asI144
(lp3392
g834
ag1367
asI145
(lp3393
g838
ag1413
asI146
(lp3394
g839
ag1928
asI147
(lp3395
g840
ag2831
ag1208
ag2636
asI148
(lp3396
g848
ag1929
asI149
(lp3397
g3174
ag2891
asI150
(lp3398
g854
ag3089
asI151
(lp3399
g872
ag954
ag1365
asI152
(lp3400
g876
ag3146
asI153
(lp3401
g1483
ag332
ag2423
asI154
(lp3402
g907
ag1460
ag1847
ag3021
ag866
asI155
(lp3403
g914
ag1389
asI156
(lp3404
g916
ag1444
asI157
(lp3405
g1711
ag1346
ag2074
asI158
(lp3406
g923
ag2803
asI159
(lp3407
g925
ag1526
ag1719
ag3051
asI160
(lp3408
g933
ag2309
ag1820
ag2889
ag1016
asI161
(lp3409
g949
ag2086
asI162
(lp3410
g955
ag2270
asI163
(lp3411
g966
ag1400
ag1507
asI164
(lp3412
g971
ag749
asI165
(lp3413
g1004
ag2925
ag3200
asI166
(lp3414
g1009
ag3115
asI167
(lp3415
g1017
ag2992
asI168
(lp3416
g1027
ag2645
asI169
(lp3417
g398
ag2150
asI170
(lp3418
g1070
ag2523
asI171
(lp3419
g1076
ag2642
asI172
(lp3420
g1078
ag1255
asI173
(lp3421
g1204
ag2449
asI174
(lp3422
g1025
ag1129
ag2265
asI175
(lp3423
g210
ag2614
asI176
(lp3424
g1138
ag1837
asI177
(lp3425
g1142
ag2930
asI178
(lp3426
g1146
ag2099
asI179
(lp3427
g1163
ag1267
asI180
(lp3428
g1169
ag3147
asI181
(lp3429
g1181
ag2109
asI182
(lp3430
g1190
ag1223
ag1926
ag2850
asI183
(lp3431
g1194
ag2217
asI184
(lp3432
g1201
ag1516
ag1528
asI185
(lp3433
g1087
ag1805
asI186
(lp3434
g1210
ag2586
asI187
(lp3435
g1213
ag1902
ag2016
ag2292
ag2837
asI188
(lp3436
g1216
ag1399
asI189
(lp3437
g1774
ag1938
asI190
(lp3438
g1261
ag1628
ag2226
ag3150
asI191
(lp3439
g1278
ag1624
ag2802
asI192
(lp3440
g1284
ag3056
asI193
(lp3441
g1305
ag3044
asI194
(lp3442
g1306
ag1860
asI195
(lp3443
g1315
ag1835
ag2392
ag3139
asI196
(lp3444
g2895
ag1828
asI197
(lp3445
g1325
ag1947
asI198
(lp3446
g1343
ag2701
asI199
(lp3447
g2923
ag2252
asI200
(lp3448
g1362
ag2625
asI201
(lp3449
g2012
ag1112
ag2037
ag2545
asI202
(lp3450
g1381
ag3216
asI203
(lp3451
g1385
ag1425
ag1912
asI204
(lp3452
g1403
ag2157
asI205
(lp3453
g1412
ag2600
asI206
(lp3454
g1422
ag2050
asI207
(lp3455
g1436
ag2829
asI208
(lp3456
g1445
ag2442
asI209
(lp3457
g1468
ag1470
asI210
(lp3458
g1490
ag1790
ag2019
asI211
(lp3459
g1494
ag1920
asI212
(lp3460
g1495
ag157
asI213
(lp3461
g1504
ag1810
asI214
(lp3462
g1520
ag3207
asI215
(lp3463
g1539
ag2355
asI216
(lp3464
g1565
ag2786
ag2870
asI217
(lp3465
g1600
ag2094
asI218
(lp3466
g1607
ag1020
asI219
(lp3467
g2974
ag3142
asI220
(lp3468
g1657
ag2117
ag2732
asI221
(lp3469
g1689
ag2406
asI222
(lp3470
g1690
ag2510
asI223
(lp3471
g908
ag1698
ag2208
asI224
(lp3472
g1706
ag2752
asI225
(lp3473
g1755
ag2069
asI226
(lp3474
g1312
ag2717
asI227
(lp3475
g1791
ag2602
asI228
(lp3476
g1324
ag3063
asI229
(lp3477
g1796
ag3225
asI230
(lp3478
g1804
ag1963
ag2091
asI231
(lp3479
g1821
ag3167
asI232
(lp3480
g1855
ag2649
asI233
(lp3481
g1889
ag541
asI234
(lp3482
g1890
ag2181
asI235
(lp3483
g1921
ag2247
ag2346
ag3149
asI236
(lp3484
g1923
ag2043
asI237
(lp3485
g2444
ag2535
asI238
(lp3486
g1937
ag2942
asI239
(lp3487
g1940
ag2494
asI240
(lp3488
g1956
ag2464
asI241
(lp3489
g1977
ag2997
asI242
(lp3490
g1978
ag1979
asI243
(lp3491
g2065
ag3108
asI244
(lp3492
g2066
ag2383
asI245
(lp3493
g2472
ag2540
asI246
(lp3494
g2106
ag2848
asI247
(lp3495
g1909
ag2482
ag3197
asI248
(lp3496
g2162
ag2945
asI249
(lp3497
g450
ag3081
asI250
(lp3498
g2225
ag2966
asI251
(lp3499
g2232
ag2331
asI252
(lp3500
g2233
ag2362
asI253
(lp3501
g2503
ag2293
asI254
(lp3502
g3090
ag2975
asI255
(lp3503
g417
ag2747
asI256
(lp3504
g1417
ag1962
asI257
(lp3505
g2373
ag2429
asI258
(lp3506
g1606
ag2996
asI259
(lp3507
g2390
ag3148
asI260
(lp3508
g2402
ag2985
asI261
(lp3509
g2447
ag945
asI262
(lp3510
g2451
ag2874
asI263
(lp3511
g1861
ag3047
asI264
(lp3512
g2662
ag3162
asI265
(lp3513
g58
ag2988
asI266
(lp3514
g2684
ag3004
asI267
(lp3515
g2709
ag2796
asI268
(lp3516
g2743
ag2982
asI269
(lp3517
g2334
ag2964
ass.